
bomb:     file format elf64-x86-64

Contents of section .interp:
 400200 2f6c6962 36342f6c 642d6c69 6e75782d  /lib64/ld-linux-
 400210 7838362d 36342e73 6f2e3200           x86-64.so.2.    
Contents of section .note.ABI-tag:
 40021c 04000000 10000000 01000000 474e5500  ............GNU.
 40022c 00000000 02000000 06000000 20000000  ............ ...
Contents of section .note.gnu.build-id:
 40023c 04000000 14000000 03000000 474e5500  ............GNU.
 40024c 5796d8d7 ca4b9b76 48ff06bc f8da50c2  W....K.vH.....P.
 40025c 0057e9dd                             .W..            
Contents of section .gnu.hash:
 400260 03000000 20000000 01000000 06000000  .... ...........
 400270 00012000 80011002 20000000 21000000  .. ..... ...!...
 400280 00000000 291d8c1c 66556110 39f28b1c  ....)...fUa.9...
Contents of section .dynsym:
 400290 00000000 00000000 00000000 00000000  ................
 4002a0 00000000 00000000 a8000000 12000000  ................
 4002b0 00000000 00000000 00000000 00000000  ................
 4002c0 70000000 12000000 00000000 00000000  p...............
 4002d0 00000000 00000000 19000000 12000000  ................
 4002e0 00000000 00000000 00000000 00000000  ................
 4002f0 58000000 12000000 00000000 00000000  X...............
 400300 00000000 00000000 02010000 12000000  ................
 400310 00000000 00000000 00000000 00000000  ................
 400320 69000000 12000000 00000000 00000000  i...............
 400330 00000000 00000000 25000000 12000000  ........%.......
 400340 00000000 00000000 00000000 00000000  ................
 400350 dc000000 12000000 00000000 00000000  ................
 400360 00000000 00000000 b6000000 12000000  ................
 400370 00000000 00000000 00000000 00000000  ................
 400380 d5000000 12000000 00000000 00000000  ................
 400390 00000000 00000000 81000000 12000000  ................
 4003a0 00000000 00000000 00000000 00000000  ................
 4003b0 f0000000 12000000 00000000 00000000  ................
 4003c0 00000000 00000000 63000000 12000000  ........c.......
 4003d0 00000000 00000000 00000000 00000000  ................
 4003e0 e9000000 12000000 00000000 00000000  ................
 4003f0 00000000 00000000 51000000 12000000  ........Q.......
 400400 00000000 00000000 00000000 00000000  ................
 400410 bc000000 12000000 00000000 00000000  ................
 400420 00000000 00000000 db000000 12000000  ................
 400430 00000000 00000000 00000000 00000000  ................
 400440 08010000 20000000 00000000 00000000  .... ...........
 400450 00000000 00000000 8d000000 12000000  ................
 400460 00000000 00000000 00000000 00000000  ................
 400470 12000000 12000000 00000000 00000000  ................
 400480 00000000 00000000 39000000 12000000  ........9.......
 400490 00000000 00000000 00000000 00000000  ................
 4004a0 ca000000 12000000 00000000 00000000  ................
 4004b0 00000000 00000000 33000000 12000000  ........3.......
 4004c0 00000000 00000000 00000000 00000000  ................
 4004d0 94000000 12000000 00000000 00000000  ................
 4004e0 00000000 00000000 d0000000 12000000  ................
 4004f0 00000000 00000000 00000000 00000000  ................
 400500 2b000000 12000000 00000000 00000000  +...............
 400510 00000000 00000000 20000000 12000000  ........ .......
 400520 00000000 00000000 00000000 00000000  ................
 400530 49000000 12000000 00000000 00000000  I...............
 400540 00000000 00000000 e3000000 12000000  ................
 400550 00000000 00000000 00000000 00000000  ................
 400560 9a000000 12000000 00000000 00000000  ................
 400570 00000000 00000000 0b000000 12000000  ................
 400580 00000000 00000000 00000000 00000000  ................
 400590 86000000 11001900 803c6000 00000000  .........<`.....
 4005a0 08000000 00000000 5d000000 11001900  ........].......
 4005b0 883c6000 00000000 08000000 00000000  .<`.............
 4005c0 af000000 11001900 903c6000 00000000  .........<`.....
 4005d0 08000000 00000000                    ........        
Contents of section .dynstr:
 4005d8 006c6962 632e736f 2e360073 6f636b65  .libc.so.6.socke
 4005e8 74006666 6c757368 00737472 63707900  t.fflush.strcpy.
 4005f8 65786974 0068746f 6e730073 7072696e  exit.htons.sprin
 400608 74660066 6f70656e 005f5f69 736f6339  tf.fopen.__isoc9
 400618 395f7373 63616e66 00636f6e 6e656374  9_sscanf.connect
 400628 00736967 6e616c00 70757473 00737464  .signal.puts.std
 400638 696e0066 67657473 00737472 6c656e00  in.fgets.strlen.
 400648 5f5f6572 726e6f5f 6c6f6361 74696f6e  __errno_location
 400658 00726561 64007374 646f7574 006d656d  .read.stdout.mem
 400668 63707900 627a6572 6f005f5f 63747970  cpy.bzero.__ctyp
 400678 655f625f 6c6f6300 67657465 6e760073  e_b_loc.getenv.s
 400688 74646572 7200616c 61726d00 67657468  tderr.alarm.geth
 400698 6f737462 796e616d 65006263 6f707900  ostbyname.bcopy.
 4006a8 61746f69 00636c6f 73650066 7072696e  atoi.close.fprin
 4006b8 74660073 6c656570 00737472 636d7000  tf.sleep.strcmp.
 4006c8 5f5f6c69 62635f73 74617274 5f6d6169  __libc_start_mai
 4006d8 6e007772 69746500 5f5f676d 6f6e5f73  n.write.__gmon_s
 4006e8 74617274 5f5f0047 4c494243 5f322e33  tart__.GLIBC_2.3
 4006f8 00474c49 42435f32 2e370047 4c494243  .GLIBC_2.7.GLIBC
 400708 5f322e31 3400474c 4942435f 322e322e  _2.14.GLIBC_2.2.
 400718 3500                                 5.              
Contents of section .gnu.version:
 40071a 00000200 02000200 02000200 02000200  ................
 40072a 02000200 02000200 02000200 02000200  ................
 40073a 02000200 00000300 02000400 02000200  ................
 40074a 02000200 02000200 02000200 05000200  ................
 40075a 02000200 0200                        ......          
Contents of section .gnu.version_r:
 400760 01000400 01000000 10000000 00000000  ................
 400770 1369690d 00000500 17010000 10000000  .ii.............
 400780 1769690d 00000400 21010000 10000000  .ii.....!.......
 400790 94919606 00000300 2b010000 10000000  ........+.......
 4007a0 751a6909 00000200 36010000 00000000  u.i.....6.......
Contents of section .rela.dyn:
 4007b0 60346000 00000000 06000000 12000000  `4`.............
 4007c0 00000000 00000000 803c6000 00000000  .........<`.....
 4007d0 05000000 20000000 00000000 00000000  .... ...........
 4007e0 883c6000 00000000 05000000 21000000  .<`.........!...
 4007f0 00000000 00000000 903c6000 00000000  .........<`.....
 400800 05000000 22000000 00000000 00000000  ...."...........
Contents of section .rela.plt:
 400810 80346000 00000000 07000000 01000000  .4`.............
 400820 00000000 00000000 88346000 00000000  .........4`.....
 400830 07000000 02000000 00000000 00000000  ................
 400840 90346000 00000000 07000000 03000000  .4`.............
 400850 00000000 00000000 98346000 00000000  .........4`.....
 400860 07000000 04000000 00000000 00000000  ................
 400870 a0346000 00000000 07000000 05000000  .4`.............
 400880 00000000 00000000 a8346000 00000000  .........4`.....
 400890 07000000 06000000 00000000 00000000  ................
 4008a0 b0346000 00000000 07000000 07000000  .4`.............
 4008b0 00000000 00000000 b8346000 00000000  .........4`.....
 4008c0 07000000 08000000 00000000 00000000  ................
 4008d0 c0346000 00000000 07000000 09000000  .4`.............
 4008e0 00000000 00000000 c8346000 00000000  .........4`.....
 4008f0 07000000 0a000000 00000000 00000000  ................
 400900 d0346000 00000000 07000000 0b000000  .4`.............
 400910 00000000 00000000 d8346000 00000000  .........4`.....
 400920 07000000 0c000000 00000000 00000000  ................
 400930 e0346000 00000000 07000000 0d000000  .4`.............
 400940 00000000 00000000 e8346000 00000000  .........4`.....
 400950 07000000 0e000000 00000000 00000000  ................
 400960 f0346000 00000000 07000000 0f000000  .4`.............
 400970 00000000 00000000 f8346000 00000000  .........4`.....
 400980 07000000 10000000 00000000 00000000  ................
 400990 00356000 00000000 07000000 11000000  .5`.............
 4009a0 00000000 00000000 08356000 00000000  .........5`.....
 4009b0 07000000 12000000 00000000 00000000  ................
 4009c0 10356000 00000000 07000000 13000000  .5`.............
 4009d0 00000000 00000000 18356000 00000000  .........5`.....
 4009e0 07000000 14000000 00000000 00000000  ................
 4009f0 20356000 00000000 07000000 15000000   5`.............
 400a00 00000000 00000000 28356000 00000000  ........(5`.....
 400a10 07000000 16000000 00000000 00000000  ................
 400a20 30356000 00000000 07000000 17000000  05`.............
 400a30 00000000 00000000 38356000 00000000  ........85`.....
 400a40 07000000 18000000 00000000 00000000  ................
 400a50 40356000 00000000 07000000 19000000  @5`.............
 400a60 00000000 00000000 48356000 00000000  ........H5`.....
 400a70 07000000 1a000000 00000000 00000000  ................
 400a80 50356000 00000000 07000000 1b000000  P5`.............
 400a90 00000000 00000000 58356000 00000000  ........X5`.....
 400aa0 07000000 1c000000 00000000 00000000  ................
 400ab0 60356000 00000000 07000000 1d000000  `5`.............
 400ac0 00000000 00000000 68356000 00000000  ........h5`.....
 400ad0 07000000 1e000000 00000000 00000000  ................
 400ae0 70356000 00000000 07000000 1f000000  p5`.............
 400af0 00000000 00000000                    ........        
Contents of section .init:
 400af8 4883ec08 488b055d 29200048 85c07405  H...H..]) .H..t.
 400b08 e8330100 004883c4 08c3               .3...H....      
Contents of section .plt:
 400b20 ff354a29 2000ff25 4c292000 0f1f4000  .5J) ..%L) ...@.
 400b30 ff254a29 20006800 000000e9 e0ffffff  .%J) .h.........
 400b40 ff254229 20006801 000000e9 d0ffffff  .%B) .h.........
 400b50 ff253a29 20006802 000000e9 c0ffffff  .%:) .h.........
 400b60 ff253229 20006803 000000e9 b0ffffff  .%2) .h.........
 400b70 ff252a29 20006804 000000e9 a0ffffff  .%*) .h.........
 400b80 ff252229 20006805 000000e9 90ffffff  .%") .h.........
 400b90 ff251a29 20006806 000000e9 80ffffff  .%.) .h.........
 400ba0 ff251229 20006807 000000e9 70ffffff  .%.) .h.....p...
 400bb0 ff250a29 20006808 000000e9 60ffffff  .%.) .h.....`...
 400bc0 ff250229 20006809 000000e9 50ffffff  .%.) .h.....P...
 400bd0 ff25fa28 2000680a 000000e9 40ffffff  .%.( .h.....@...
 400be0 ff25f228 2000680b 000000e9 30ffffff  .%.( .h.....0...
 400bf0 ff25ea28 2000680c 000000e9 20ffffff  .%.( .h..... ...
 400c00 ff25e228 2000680d 000000e9 10ffffff  .%.( .h.........
 400c10 ff25da28 2000680e 000000e9 00ffffff  .%.( .h.........
 400c20 ff25d228 2000680f 000000e9 f0feffff  .%.( .h.........
 400c30 ff25ca28 20006810 000000e9 e0feffff  .%.( .h.........
 400c40 ff25c228 20006811 000000e9 d0feffff  .%.( .h.........
 400c50 ff25ba28 20006812 000000e9 c0feffff  .%.( .h.........
 400c60 ff25b228 20006813 000000e9 b0feffff  .%.( .h.........
 400c70 ff25aa28 20006814 000000e9 a0feffff  .%.( .h.........
 400c80 ff25a228 20006815 000000e9 90feffff  .%.( .h.........
 400c90 ff259a28 20006816 000000e9 80feffff  .%.( .h.........
 400ca0 ff259228 20006817 000000e9 70feffff  .%.( .h.....p...
 400cb0 ff258a28 20006818 000000e9 60feffff  .%.( .h.....`...
 400cc0 ff258228 20006819 000000e9 50feffff  .%.( .h.....P...
 400cd0 ff257a28 2000681a 000000e9 40feffff  .%z( .h.....@...
 400ce0 ff257228 2000681b 000000e9 30feffff  .%r( .h.....0...
 400cf0 ff256a28 2000681c 000000e9 20feffff  .%j( .h..... ...
 400d00 ff256228 2000681d 000000e9 10feffff  .%b( .h.........
 400d10 ff255a28 2000681e 000000e9 00feffff  .%Z( .h.........
Contents of section .text:
 400d20 31ed4989 d15e4889 e24883e4 f0505449  1.I..^H..H...PTI
 400d30 c7c07027 400048c7 c1002740 0048c7c7  ..p'@.H...'@.H..
 400d40 160e4000 e897feff fff4660f 1f440000  ..@.......f..D..
 400d50 b8873c60 0055482d 803c6000 4883f80e  ..<`.UH-.<`.H...
 400d60 4889e576 1bb80000 00004885 c074115d  H..v......H..t.]
 400d70 bf803c60 00ffe066 0f1f8400 00000000  ..<`...f........
 400d80 5dc36666 6666662e 0f1f8400 00000000  ].fffff.........
 400d90 be803c60 00554881 ee803c60 0048c1fe  ..<`.UH...<`.H..
 400da0 034889e5 4889f048 c1e83f48 01c648d1  .H..H..H..?H..H.
 400db0 fe7415b8 00000000 4885c074 0b5dbf80  .t......H..t.]..
 400dc0 3c6000ff e00f1f00 5dc3660f 1f440000  <`......].f..D..
 400dd0 803dc12e 20000075 11554889 e5e86eff  .=.. ..u.UH...n.
 400de0 ffff5dc6 05ae2e20 0001f3c3 0f1f4000  ..].... ......@.
 400df0 bf883260 0048833f 007505eb 930f1f00  ..2`.H.?.u......
 400e00 b8000000 004885c0 74f15548 89e5ffd0  .....H..t.UH....
 400e10 5de97aff ffff5548 89e54883 ec20897d  ].z...UH..H.. .}
 400e20 ec488975 e0837dec 01751348 8b05562e  .H.u..}..u.H..V.
 400e30 20004889 05672e20 00e98200 0000837d   .H..g. .......}
 400e40 ec027559 488b45e0 4883c008 488b00be  ..uYH.E.H...H...
 400e50 88274000 4889c7e8 34feffff 4889053d  .'@.H...4...H..=
 400e60 2e200048 8b05362e 20004885 c0755148  . .H..6. .H..uQH
 400e70 8b45e048 83c00848 8b10488b 45e0488b  .E.H...H..H.E.H.
 400e80 004889c6 bf8a2740 00b80000 0000e80d  .H....'@........
 400e90 fdffffbf 08000000 e833feff ff488b45  .........3...H.E
 400ea0 e0488b00 4889c6bf a7274000 b8000000  .H..H....'@.....
 400eb0 00e8eafc ffffbf08 000000e8 10feffff  ................
 400ec0 e8660700 00bfc827 4000e891 fcffffbf  .f.....'@.......
 400ed0 08284000 e887fcff ffe82008 00004889  .(@....... ...H.
 400ee0 45f8488b 45f84889 c7e8c000 0000e893  E.H.E.H.........
 400ef0 090000bf 38284000 e863fcff ffe8fc07  ....8(@..c......
 400f00 00004889 45f8488b 45f84889 c7e8c400  ..H.E.H.E.H.....
 400f10 0000e86f 090000bf 61284000 e83ffcff  ...o....a(@..?..
 400f20 ffe8d807 00004889 45f8488b 45f84889  ......H.E.H.E.H.
 400f30 c7e80101 0000e84b 090000bf 7f284000  .......K.....(@.
 400f40 e81bfcff ffe8b407 00004889 45f8488b  ..........H.E.H.
 400f50 45f84889 c7e80902 0000e827 090000bf  E.H........'....
 400f60 90284000 e8f7fbff ffe89007 00004889  .(@...........H.
 400f70 45f8488b 45f84889 c7e86102 0000e803  E.H.E.H...a.....
 400f80 090000bf b4284000 e8d3fbff ffe86c07  .....(@.......l.
 400f90 00004889 45f8488b 45f84889 c7e8ac02  ..H.E.H.E.H.....
 400fa0 0000e8df 080000b8 00000000 c9c35548  ..............UH
 400fb0 89e54883 ec104889 7df8488b 45f8bed8  ..H...H.}.H.E...
 400fc0 28400048 89c7e8de 05000085 c07405e8  (@.H.........t..
 400fd0 90080000 c9c35548 89e54883 ec304889  ......UH..H..0H.
 400fe0 7dd8488d 55e0488b 45d84889 d64889c7  }.H.U.H.E.H..H..
 400ff0 e81a0500 008b45e0 83f80174 05e86208  ......E....t..b.
 401000 0000c745 fc010000 00eb248b 45fc4898  ...E......$.E.H.
 401010 8b5485e0 8b45fc83 e8014898 8b4485e0  .T...E....H..D..
 401020 01c039c2 7405e839 08000083 45fc0183  ..9.t..9....E...
 401030 7dfc057e d6c9c355 4889e548 83ec2048  }..~...UH..H.. H
 401040 897de8c7 45fc0000 0000c745 f8000000  .}..E......E....
 401050 00488d4d f0488d55 f4488b45 e8bef928  .H.M.H.U.H.E...(
 401060 40004889 c7b80000 0000e801 fcffff89  @.H.............
 401070 45f8837d f8017f05 e8e70700 008b45f4  E..}..........E.
 401080 83f80777 5489c048 8b04c500 294000ff  ...wT..H....)@..
 401090 e0c745fc 92030000 eb44c745 fcb60100  ..E......D.E....
 4010a0 00eb3bc7 45fc1d02 0000eb32 c745fc24  ..;.E......2.E.$
 4010b0 010000eb 29c745fc 52030000 eb20c745  ....).E.R.... .E
 4010c0 fc1a0200 00eb17c7 45fc7d03 0000eb0e  ........E.}.....
 4010d0 c745fcb2 030000eb 05e88607 00008b45  .E.............E
 4010e0 f03945fc 7405e879 070000c9 c3554889  .9E.t..y.....UH.
 4010f0 e54883ec 20897dec 8975e889 55e48b45  .H.. .}..u..U..E
 401100 e42b45e8 89c2c1ea 1f01d0d1 f889c28b  .+E.............
 401110 45e801d0 8945fc8b 45fc3b45 ec7e198b  E....E..E.;E.~..
 401120 45fc8d50 ff8b4de8 8b45ec89 ce89c7e8  E..P..M..E......
 401130 b9ffffff 01c0eb29 8b45fc3b 45ec7d1c  .......).E.;E.}.
 401140 8b45fc8d 48018b55 e48b45ec 89ce89c7  .E..H..U..E.....
 401150 e898ffff ff01c083 c001eb05 b8000000  ................
 401160 00c9c355 4889e548 83ec3048 897dd848  ...UH..H..0H.}.H
 401170 8d4dec48 8d55f048 8b45d8be f9284000  .M.H.U.H.E...(@.
 401180 4889c7b8 00000000 e8e3faff ff8945fc  H.............E.
 401190 837dfc02 750f8b45 f085c078 088b45f0  .}..u..E...x..E.
 4011a0 83f80e7e 05e8ba06 0000c745 f8030000  ...~.......E....
 4011b0 008b45f0 ba0e0000 00be0000 000089c7  ..E.............
 4011c0 e828ffff ff8945f4 8b45f43b 45f87508  .(....E..E.;E.u.
 4011d0 8b45ec3b 45f87405 e8870600 00c9c355  .E.;E.t........U
 4011e0 4889e548 83ec2048 897de848 8b45e848  H..H.. H.}.H.E.H
 4011f0 89c7e880 03000089 45f4837d f4067405  ........E..}..t.
 401200 e85f0600 00c745f8 00000000 c745fc00  ._....E......E..
 401210 000000eb 268b45fc 4863d048 8b45e848  ....&.E.Hc.H.E.H
 401220 01d00fb6 000fbec0 83e00f48 988b0485  ...........H....
 401230 40386000 0145f883 45fc0183 7dfc057e  @8`..E..E...}..~
 401240 d4837df8 527405e8 18060000 c9c35548  ..}.Rt........UH
 401250 89e54883 ec704889 7d9848c7 45e82036  ..H..pH.}.H.E. 6
 401260 6000488d 55d0488b 45984889 d64889c7  `.H.U.H.E.H..H..
 401270 e89a0200 00c745f4 00000000 eb548b45  ......E......T.E
 401280 f448988b 4485d085 c07e0e8b 45f44898  .H..D....~..E.H.
 401290 8b4485d0 83f8067e 05e8c605 00008b45  .D.....~.......E
 4012a0 f483c001 8945f0eb 1f8b45f4 48988b54  .....E....E.H..T
 4012b0 85d08b45 f048988b 4485d039 c27505e8  ...E.H..D..9.u..
 4012c0 a0050000 8345f001 837df005 7edb8345  .....E...}..~..E
 4012d0 f401837d f4057ea6 c745f400 000000eb  ...}..~..E......
 4012e0 41488b45 e8488945 f8c745f0 01000000  AH.E.H.E..E.....
 4012f0 eb10488b 45f8488b 40084889 45f88345  ..H.E.H.@.H.E..E
 401300 f0018b45 f448988b 4485d03b 45f07fe2  ...E.H..D..;E...
 401310 8b45f448 98488b55 f8488954 c5a08345  .E.H.H.U.H.T...E
 401320 f401837d f4057eb9 488b45a0 488945e8  ...}..~.H.E.H.E.
 401330 488b45e8 488945f8 c745f401 000000eb  H.E.H.E..E......
 401340 228b45f4 4898488b 54c5a048 8b45f848  ".E.H.H.T..H.E.H
 401350 89500848 8b45f848 8b400848 8945f883  .P.H.E.H.@.H.E..
 401360 45f40183 7df4057e d8488b45 f848c740  E...}..~.H.E.H.@
 401370 08000000 00488b45 e8488945 f8c745f4  .....H.E.H.E..E.
 401380 00000000 eb29488b 45f88b10 488b45f8  .....)H.E...H.E.
 401390 488b4008 8b0039c2 7d05e8c5 04000048  H.@...9.}......H
 4013a0 8b45f848 8b400848 8945f883 45f40183  .E.H.@.H.E..E...
 4013b0 7df4047e d1c9c355 4889e548 83ec1048  }..~...UH..H...H
 4013c0 897df889 75f44883 7df80075 07b8ffff  .}..u.H.}..u....
 4013d0 ffffeb50 488b45f8 8b003b45 f47e1948  ...PH.E...;E.~.H
 4013e0 8b45f848 8b40088b 55f489d6 4889c7e8  .E.H.@..U...H...
 4013f0 c3ffffff 01c0eb2c 488b45f8 8b003b45  .......,H.E...;E
 401400 f47507b8 00000000 eb1a488b 45f8488b  .u........H.E.H.
 401410 40108b55 f489d648 89c7e898 ffffff01  @..U...H........
 401420 c083c001 c9c35548 89e54883 ec10e8cb  ......UH..H.....
 401430 02000048 8945f848 8b45f848 89c7e86d  ...H.E.H.E.H...m
 401440 f8ffff89 45f4837d f4007e09 817df4e9  ....E..}..~..}..
 401450 0300007e 05e80a04 00008b45 f489c6bf  ...~.......E....
 401460 f0376000 e84effff ff8945f0 837df004  .7`..N....E..}..
 401470 7405e8ed 030000bf 40294000 e8dff6ff  t.......@)@.....
 401480 ffe80004 0000c9c3 554889e5 4883ec10  ........UH..H...
 401490 897dfcbf c8294000 e8c3f6ff ffbf0300  .}...)@.........
 4014a0 0000e849 f8ffffbf 002a4000 b8000000  ...I.....*@.....
 4014b0 00e8eaf6 ffff488b 05c32720 004889c7  ......H...' .H..
 4014c0 e89bf7ff ffbf0100 0000e821 f8ffffbf  ...........!....
 4014d0 082a4000 e887f6ff ffbf1000 0000e8ed  .*@.............
 4014e0 f7ffff55 4889e548 83ec1048 897df848  ...UH..H...H.}.H
 4014f0 8b45f848 89c6bf10 2a4000b8 00000000  .E.H....*@......
 401500 e89bf6ff ffbf0800 0000e8c1 f7ffff55  ...............U
 401510 4889e548 83ec2048 897de848 8975e048  H..H.. H.}.H.u.H
 401520 8b45e048 8d781448 8b45e048 8d701048  .E.H.x.H.E.H.p.H
 401530 8b45e04c 8d480c48 8b45e04c 8d400848  .E.L.H.H.E.L.@.H
 401540 8b45e048 8d480448 8b55e048 8b45e857  .E.H.H.H.U.H.E.W
 401550 56be212a 40004889 c7b80000 0000e80d  V.!*@.H.........
 401560 f7ffff48 83c41089 45fc837d fc057f05  ...H....E..}....
 401570 e8ef0200 00c9c355 4889e548 897de848  .......UH..H.}.H
 401580 8b45e848 8945f0c7 45fc0000 0000eb09  .E.H.E..E.......
 401590 488345f0 018345fc 01488b45 f00fb600  H.E...E..H.E....
 4015a0 84c075ec 8b45fc5d c3554889 e5534883  ..u..E.].UH..SH.
 4015b0 ec204889 7de04889 75d8488b 45e04889  . H.}.H.u.H.E.H.
 4015c0 c7e8b1ff ffff89c3 488b45d8 4889c7e8  ........H.E.H...
 4015d0 a3ffffff 39c37407 b8010000 00eb4548  ....9.t.......EH
 4015e0 8b45e048 8945f048 8b45d848 8945e8eb  .E.H.E.H.E.H.E..
 4015f0 23488b45 f00fb610 488b45e8 0fb60038  #H.E....H.E....8
 401600 c27407b8 01000000 eb1a4883 45f00148  .t........H.E..H
 401610 8345e801 488b45f0 0fb60084 c075d2b8  .E..H.E......u..
 401620 00000000 4883c420 5b5dc355 4889e5be  ....H.. [].UH...
 401630 88144000 bf020000 00e8d2f5 ffff5dc3  ..@...........].
 401640 554889e5 5dc35548 89e54883 ec104889  UH..].UH..H...H.
 401650 7df8eb37 e8a7f6ff ff488b08 488b45f8  }..7.....H..H.E.
 401660 488d5001 488955f8 0fb60048 0fbec048  H.P.H.U....H...H
 401670 01c04801 c80fb700 0fb7c025 00200000  ..H........%. ..
 401680 85c07507 b8000000 00eb1048 8b45f80f  ..u........H.E..
 401690 b60084c0 75beb801 000000c9 c3554889  ....u........UH.
 4016a0 e54883ec 10488b0d f4252000 8b05ea25  .H...H...% ....%
 4016b0 20004863 d04889d0 48c1e002 4801d048   .Hc.H..H...H..H
 4016c0 c1e00448 05c03c60 004889ca be500000  ...H..<`.H...P..
 4016d0 004889c7 e817f5ff ff488945 f848837d  .H.......H.E.H.}
 4016e0 f8007410 488b45f8 4889c7e8 56ffffff  ..t.H.E.H...V...
 4016f0 85c07506 488b45f8 eb02eba9 c9c35548  ..u.H.E.......UH
 401700 89e54883 ec10b800 000000e8 8dffffff  ..H.............
 401710 488945f8 48837df8 00757748 8b157e25  H.E.H.}..uwH..~%
 401720 2000488b 055f2520 004839c2 7514bf33   .H.._% .H9.u..3
 401730 2a4000e8 28f4ffff bf080000 00e88ef5  *@..(...........
 401740 ffffbf51 2a4000e8 e4f3ffff 4885c074  ...Q*@......H..t
 401750 0abf0000 0000e875 f5ffff48 8b052625  .......u...H..&%
 401760 20004889 05372520 00b80000 0000e82a   .H..7% .......*
 401770 ffffff48 8945f848 837df800 7514bf33  ...H.E.H.}..u..3
 401780 2a4000e8 d8f3ffff bf000000 00e83ef5  *@............>.
 401790 ffff8b05 04252000 4863d048 89d048c1  .....% .Hc.H..H.
 4017a0 e0024801 d048c1e0 044805c0 3c600048  ..H..H...H..<`.H
 4017b0 89c7e8c9 f3ffff89 45f4837d f44e7e50  ........E..}.N~P
 4017c0 bf5c2a40 00e896f3 ffff8b05 cc242000  .\*@.........$ .
 4017d0 8d500189 15c32420 004863d0 4889d048  .P....$ .Hc.H..H
 4017e0 c1e00248 01d048c1 e0044805 c03c6000  ...H..H...H..<`.
 4017f0 48be2a2a 2a747275 6e634889 3048b961  H.***truncH.0H.a
 401800 7465642a 2a2a0048 894808e8 54000000  ted***.H.H..T...
 401810 8b058624 20008b55 f483ea01 4863ca48  ...$ ..U....Hc.H
 401820 63d04889 d048c1e0 024801d0 48c1e004  c.H..H...H..H...
 401830 4801c848 05c03c60 00c60000 8b055a24  H..H..<`......Z$
 401840 20008d50 01891551 24200048 63d04889   ..P...Q$ .Hc.H.
 401850 d048c1e0 024801d0 48c1e004 4805c03c  .H...H..H...H..<
 401860 6000c9c3 554889e5 bf772a40 00e8eef2  `...UH...w*@....
 401870 ffffbf80 2a4000e8 e4f2ffff bf080000  ....*@..........
 401880 00e84af4 ffff5548 89e54883 ec708b05  ..J...UH..H..p..
 401890 08242000 83f80675 6f488d4d a0488d55  .$ ....uoH.M.H.U
 4018a0 98488d45 9c4989c8 4889d148 89c2be97  .H.E.I..H..H....
 4018b0 2a4000bf b03d6000 b8000000 00e8aef3  *@...=`.........
 4018c0 ffff8945 fc837dfc 03753348 8d45a0be  ...E..}..u3H.E..
 4018d0 a02a4000 4889c7e8 cdfcffff 85c0751e  .*@.H.........u.
 4018e0 bfa82a40 00e876f2 ffffbfd0 2a4000e8  ..*@..v.....*@..
 4018f0 6cf2ffff b8000000 00e828fb ffffbf08  l.........(.....
 401900 2b4000e8 58f2ffff c9c35548 89e54883  +@..X.....UH..H.
 401910 ec10897d fc488b05 74232000 ba000000  ...}.H..t# .....
 401920 00be382b 40004889 c7b80000 0000e8fd  ..8+@.H.........
 401930 f2ffffbf 01000000 e893f3ff ff554889  .............UH.
 401940 e548897d f88975f4 488b45f8 8b55f489  .H.}..u.H.E..U..
 401950 10488b45 f8c74004 00000000 488b45f8  .H.E..@.....H.E.
 401960 488d5010 488b45f8 48895008 5dc35548  H.P.H.E.H.P.].UH
 401970 89e54883 ec304889 7de84889 75e04889  ..H..0H.}.H.u.H.
 401980 55d8eb6e 488b45e8 488d4810 488b45e8  U..nH.E.H.H.H.E.
 401990 8b00ba00 20000048 89ce89c7 e82ff2ff  .... ..H...../..
 4019a0 ff89c248 8b45e889 5004488b 45e88b40  ...H.E..P.H.E..@
 4019b0 0485c079 18e886f1 ffff8b00 83f80474  ...y...........t
 4019c0 3148c7c0 ffffffff e99d0000 00488b45  1H...........H.E
 4019d0 e88b4004 85c0750a b8000000 00e98800  ..@...u.........
 4019e0 0000488b 45e8488d 5010488b 45e84889  ..H.E.H.P.H.E.H.
 4019f0 5008488b 45e88b40 0485c07e 87488b45  P.H.E..@...~.H.E
 401a00 d88945fc 488b45e8 8b400448 98483b45  ..E.H.E..@.H.H;E
 401a10 d8730a48 8b45e88b 40048945 fc8b45fc  .s.H.E..@..E..E.
 401a20 4863d048 8b45e848 8b480848 8b45e048  Hc.H.E.H.H.H.E.H
 401a30 89ce4889 c7e816f2 ffff488b 45e8488b  ..H.......H.E.H.
 401a40 50088b45 fc489848 01c2488b 45e84889  P..E.H.H..H.E.H.
 401a50 5008488b 45e88b40 042b45fc 89c2488b  P.H.E..@.+E...H.
 401a60 45e88950 048b45fc 4898c9c3 554889e5  E..P..E.H...UH..
 401a70 4883ec40 48897dd8 488975d0 488955c8  H..@H.}.H.u.H.U.
 401a80 488b45d0 488945f0 c745fc01 000000eb  H.E.H.E..E......
 401a90 5f488d4d eb488b45 d8ba0100 00004889  _H.M.H.E......H.
 401aa0 ce4889c7 e8c5feff ff8945ec 837dec01  .H........E..}..
 401ab0 751c488b 45f0488d 50014889 55f00fb6  u.H.E.H.P.H.U...
 401ac0 55eb8810 0fb645eb 3c0a7520 eb2d837d  U.....E.<.u .-.}
 401ad0 ec00750f 837dfc01 7507b800 000000eb  ..u..}..u.......
 401ae0 26eb1848 c7c0ffff ffffeb1b 8345fc01  &..H.........E..
 401af0 8b45fc48 98483b45 c8729648 8b45f0c6  .E.H.H;E.r.H.E..
 401b00 00008b45 fc4898c9 c3554889 e54883ec  ...E.H...UH..H..
 401b10 40897ddc 488975d0 488955c8 488b45c8  @.}.H.u.H.U.H.E.
 401b20 488945f8 488b45d0 488945e8 eb4f488b  H.E.H.E.H.E..OH.
 401b30 55f8488b 4de88b45 dc4889ce 89c7e82d  U.H.M..E.H.....-
 401b40 f0ffff48 8945f048 837df000 7f1fe8ed  ...H.E.H.}......
 401b50 efffff8b 0083f804 750a48c7 45f00000  ........u.H.E...
 401b60 0000eb09 48c7c0ff ffffffeb 1b488b45  ....H........H.E
 401b70 f0482945 f8488b45 f0480145 e848837d  .H)E.H.E.H.E.H.}
 401b80 f80075aa 488b45c8 c9c35548 89e54883  ..u.H.E...UH..H.
 401b90 ec204889 7de84889 75e0488b 45e84889  . H.}.H.u.H.E.H.
 401ba0 c7e8daef ffff8945 fce92c01 0000488b  .......E..,...H.
 401bb0 45e80fb6 003c2a74 63488b45 e80fb600  E....<*tcH.E....
 401bc0 3c2d7458 488b45e8 0fb6003c 2e744d48  <-tXH.E....<.tMH
 401bd0 8b45e80f b6003c5f 7442488b 45e80fb6  .E....<_tBH.E...
 401be0 003c2f76 0b488b45 e80fb600 3c39762c  .</v.H.E....<9v,
 401bf0 488b45e8 0fb6003c 40760b48 8b45e80f  H.E....<@v.H.E..
 401c00 b6003c5a 7616488b 45e80fb6 003c6076  ..<Zv.H.E....<`v
 401c10 25488b45 e80fb600 3c7a771a 488b45e0  %H.E....<zw.H.E.
 401c20 488d5001 488955e0 488b55e8 0fb61288  H.P.H.U.H.U.....
 401c30 10e99f00 0000488b 45e80fb6 003c2075  ......H.E....< u
 401c40 14488b45 e0488d50 01488955 e0c6002b  .H.E.H.P.H.U...+
 401c50 e9800000 00488b45 e80fb600 3c1f760b  .....H.E....<.v.
 401c60 488b45e8 0fb60084 c0790b48 8b45e80f  H.E......y.H.E..
 401c70 b6003c09 7558488b 45e80fb6 000fb6d0  ..<.uXH.E.......
 401c80 488d45f0 be5c2b40 004889c7 b8000000  H.E..\+@.H......
 401c90 00e82af0 ffff488b 45e0488d 50014889  ..*...H.E.H.P.H.
 401ca0 55e00fb6 55f08810 488b45e0 488d5001  U...U...H.E.H.P.
 401cb0 488955e0 0fb655f1 8810488b 45e0488d  H.U...U...H.E.H.
 401cc0 50014889 55e00fb6 55f28810 eb07b8ff  P.H.U...U.......
 401cd0 ffffffeb 1b488345 e8018b45 fc8d50ff  .....H.E...E..P.
 401ce0 8955fc85 c00f85c3 feffffb8 00000000  .U..............
 401cf0 c9c35548 89e55348 81ec88a0 00004889  ..UH..SH......H.
 401d00 bd985fff ff89b594 5fffff48 8995885f  .._....._..H..._
 401d10 ffff4889 8d805fff ff4c8985 785fffff  ..H..._..L..x_..
 401d20 4c898d70 5fffffc7 85ac7fff ff000000  L..p_...........
 401d30 00ba0000 0000be01 000000bf 02000000  ................
 401d40 e8cbefff ff8945ec 837dec00 7952488b  ......E..}..yRH.
 401d50 451048bb 4572726f 723a2043 48891848  E.H.Error: CH..H
 401d60 bb6c6965 6e742075 6e488958 0848bb61  .lient unH.X.H.a
 401d70 626c6520 746f2048 89581048 bb637265  ble to H.X.H.cre
 401d80 61746520 73488958 18c74020 6f636b65  ate sH.X..@ ocke
 401d90 66c74024 7400b8ff ffffffe9 77060000  f.@$t.......w...
 401da0 488b8598 5fffff48 89c7e871 eeffff48  H..._..H...q...H
 401db0 8945e048 837de000 756e488b 451048bb  .E.H.}..unH.E.H.
 401dc0 4572726f 723a2044 48891848 bb4e5320  Error: DH..H.NS 
 401dd0 69732075 6e488958 0848bb61 626c6520  is unH.X.H.able 
 401de0 746f2048 89581048 bb726573 6f6c7665  to H.X.H.resolve
 401df0 20488958 1848bb73 65727665 72206148   H.X.H.server aH
 401e00 895820c7 40286464 726566c7 402c7373  .X .@(ddref.@,ss
 401e10 c6402e00 8b45ec89 c7e8a2ed ffffb8ff  .@...E..........
 401e20 ffffffe9 ef050000 488d45c0 be100000  ........H.E.....
 401e30 004889c7 e867eeff ff66c745 c0020048  .H...g...f.E...H
 401e40 8b45e08b 40144863 d0488b45 e0488b40  .E..@.Hc.H.E.H.@
 401e50 18488b00 488d4dc0 4883c104 4889ce48  .H..H.M.H...H..H
 401e60 89c7e819 eeffff8b 85945fff ff0fb7c0  .........._.....
 401e70 89c7e819 edffff66 8945c248 8d4dc08b  .......f.E.H.M..
 401e80 45ecba10 00000048 89ce89c7 e84feeff  E......H.....O..
 401e90 ff85c079 60488b45 1048be45 72726f72  ...y`H.E.H.Error
 401ea0 3a205548 893048bb 6e61626c 6520746f  : UH.0H.nable to
 401eb0 48895808 48b92063 6f6e6e65 63744889  H.X.H. connectH.
 401ec0 481048be 20746f20 74686520 48897018  H.H. to the H.p.
 401ed0 c7402073 65727666 c7402465 72c64026  .@ servf.@$er.@&
 401ee0 008b45ec 89c7e8d5 ecffffb8 ffffffff  ..E.............
 401ef0 e9220500 00488b85 705fffff 4889c7e8  ."...H..p_..H...
 401f00 7cecffff 488945d8 488b8588 5fffff48  |...H.E.H..._..H
 401f10 89c7e869 ecffff48 89c3488b 85805fff  ...i...H..H..._.
 401f20 ff4889c7 e857ecff ff4801c3 488b8578  .H...W...H..H..x
 401f30 5fffff48 89c7e845 ecffff48 8d0c0348  _..H...E...H...H
 401f40 8b55d848 89d04801 c04801d0 4801c848  .U.H..H..H..H..H
 401f50 83e88048 8945d048 817dd000 20000076  ...H.E.H.}.. ..v
 401f60 79488b45 1048bb45 72726f72 3a205248  yH.E.H.Error: RH
 401f70 891848b9 6573756c 74207374 48894808  ..H.esult stH.H.
 401f80 48be7269 6e672074 6f6f4889 701048bb  H.ring tooH.p.H.
 401f90 206c6172 67652e20 48895818 48ba496e   large. H.X.H.In
 401fa0 63726561 73654889 502048b9 20535542  creaseH.P H. SUB
 401fb0 4d495452 48894828 48be5f4d 41584255  MITRH.H(H._MAXBU
 401fc0 46004889 70308b45 ec89c7e8 f0ebffff  F.H.p0.E........
 401fd0 b8ffffff ffe93d04 0000488d 85b09fff  ......=...H.....
 401fe0 ffbe0020 00004889 c7e8b2ec ffff488d  ... ..H.......H.
 401ff0 95b09fff ff488b85 705fffff 4889d648  .....H..p_..H..H
 402000 89c7e883 fbffff85 c00f8991 00000048  ...............H
 402010 8b451048 bb457272 6f723a20 52488918  .E.H.Error: RH..
 402020 48ba6573 756c7420 73744889 500848b9  H.esult stH.P.H.
 402030 72696e67 20636f6e 48894810 48be7461  ring conH.H.H.ta
 402040 696e7320 616e4889 701848bb 20696c6c  ins anH.p.H. ill
 402050 6567616c 48895820 48ba206f 7220756e  egalH.X H. or un
 402060 70724889 502848b9 696e7461 626c6520  prH.P(H.intable 
 402070 48894830 48be6368 61726163 74654889  H.H0H.characteH.
 402080 703866c7 4040722e c6404200 8b45ec89  p8f.@@r..@B..E..
 402090 c7e82aeb ffffb8ff ffffffe9 77030000  ..*.........w...
 4020a0 488dbdb0 9fffff48 8bb5785f ffff488b  H......H..x_..H.
 4020b0 8d805fff ff488b95 885fffff 488d85b0  .._..H..._..H...
 4020c0 bfffff49 89f94989 f0be682b 40004889  ...I..I...h+@.H.
 4020d0 c7b80000 0000e8e5 ebffff48 8d85b0bf  ...........H....
 4020e0 ffff4889 c7e896ea ffff4889 c2488d8d  ..H.......H..H..
 4020f0 b0bfffff 8b45ec48 89ce89c7 e808faff  .....E.H........
 402100 ff4885c0 7964488b 451048bb 4572726f  .H..ydH.E.H.Erro
 402110 723a2043 48891848 ba6c6965 6e742075  r: CH..H.lient u
 402120 6e488950 0848b961 626c6520 746f2048  nH.P.H.able to H
 402130 89481048 be777269 74652074 6f488970  .H.H.write toH.p
 402140 1848bb20 74686520 73657248 895820c7  .H. the serH.X .
 402150 40287665 72008b45 ec89c7e8 60eaffff  @(ver..E....`...
 402160 b8ffffff ffe9ad02 00008b55 ec488d85  ...........U.H..
 402170 b0dfffff 89d64889 c7e8bff7 ffff488d  ......H.......H.
 402180 8db0bfff ff488d85 b0dfffff ba002000  .....H........ .
 402190 004889ce 4889c7e8 d0f8ffff 4885c07f  .H..H.......H...
 4021a0 78488b45 1048ba45 72726f72 3a204348  xH.E.H.Error: CH
 4021b0 891048b9 6c69656e 7420756e 48894808  ..H.lient unH.H.
 4021c0 48be6162 6c652074 6f204889 701048bb  H.able to H.p.H.
 4021d0 72656164 20666972 48895818 48bf7374  read firH.X.H.st
 4021e0 20686561 64654889 782048ba 72206672   headeH.x H.r fr
 4021f0 6f6d2073 48895028 c7403065 72766566  om sH.P(.@0ervef
 402200 c7403472 008b45ec 89c7e8b1 e9ffffb8  .@4r..E.........
 402210 ffffffff e9fe0100 00488db5 a05fffff  .........H..._..
 402220 488d8dac 7fffff48 8d95b07f ffff488d  H......H......H.
 402230 85b0bfff ff4989f0 beb22b40 004889c7  .....I....+@.H..
 402240 b8000000 00e826ea ffff8b85 ac7fffff  ......&.........
 402250 3dc80000 0074398b 85ac7fff ff488d95  =....t9......H..
 402260 a05fffff 4889d189 c2bec82b 4000488b  ._..H......+@.H.
 402270 7d10b800 000000e8 44eaffff 8b45ec89  }.......D....E..
 402280 c7e83ae9 ffffb8ff ffffffe9 87010000  ..:.............
 402290 e9920000 00488d8d b0bfffff 488d85b0  .....H......H...
 4022a0 dfffffba 00200000 4889ce48 89c7e8b9  ..... ..H..H....
 4022b0 f7ffff48 85c07f6f 488b4510 48b94572  ...H...oH.E.H.Er
 4022c0 726f723a 20434889 0848be6c 69656e74  ror: CH..H.lient
 4022d0 20756e48 89700848 bb61626c 6520746f   unH.p.H.able to
 4022e0 20488958 1048bf72 65616420 68656148   H.X.H.read heaH
 4022f0 89781848 ba646572 73206672 6f488950  .x.H.ders froH.P
 402300 2048b96d 20736572 76657248 894828c6   H.m serverH.H(.
 402310 4030008b 45ec89c7 e8a3e8ff ffb8ffff  @0..E...........
 402320 ffffe9f0 00000048 8d85b0bf ffffbef5  .......H........
 402330 2b400048 89c7e8c5 e8ffff85 c00f8552  +@.H...........R
 402340 ffffff48 8d8db0bf ffff488d 85b0dfff  ...H......H.....
 402350 ffba0020 00004889 ce4889c7 e80bf7ff  ... ..H..H......
 402360 ff4885c0 7f76488b 451048be 4572726f  .H...vH.E.H.Erro
 402370 723a2043 48893048 bb6c6965 6e742075  r: CH.0H.lient u
 402380 6e488958 0848bf61 626c6520 746f2048  nH.X.H.able to H
 402390 89781048 ba726561 64207374 61488950  .x.H.read staH.P
 4023a0 1848b974 7573206d 65737348 89482048  .H.tus messH.H H
 4023b0 be616765 2066726f 6d488970 2848bb20  .age fromH.p(H. 
 4023c0 73657276 65720048 8958308b 45ec89c7  server.H.X0.E...
 4023d0 e8ebe7ff ffb8ffff ffffeb3b 488d85b0  ...........;H...
 4023e0 bfffff48 89c6488b 7d10e861 e7ffff8b  ...H..H.}..a....
 4023f0 45ec89c7 e8c7e7ff ffbef82b 4000488b  E..........+@.H.
 402400 7d10e8f9 e7ffff85 c07507b8 00000000  }........u......
 402410 eb05b8ff ffffff48 81c488a0 00005b5d  .......H......[]
 402420 c3554889 e54883ec 10897dfc 837dfc00  .UH..H....}..}..
 402430 7502eb26 837dfc00 7907c745 fc000000  u..&.}..y..E....
 402440 00be0a19 4000bf0e 000000e8 c0e7ffff  ....@...........
 402450 8b45fc89 c7e856e7 ffffc9c3 554889e5  .E....V.....UH..
 402460 4883ec40 48897dc8 48c745f8 fb2b4000  H..@H.}.H.E..+@.
 402470 c745f46e 3b0000be 01000000 bf0d0000  .E.n;...........
 402480 00e88ae7 ffffbe01 000000bf 1d000000  ................
 402490 e87be7ff ffbe0100 0000bf1d 000000e8  .{..............
 4024a0 6ce7ffff ba000000 00be0100 0000bf02  l...............
 4024b0 000000e8 58e8ffff 8945f083 7df00079  ....X....E..}..y
 4024c0 52488b45 c848b945 72726f72 3a204348  RH.E.H.Error: CH
 4024d0 890848ba 6c69656e 7420756e 48895008  ..H.lient unH.P.
 4024e0 48b96162 6c652074 6f204889 481048be  H.able to H.H.H.
 4024f0 63726561 74652073 48897018 c740206f  create sH.p..@ o
 402500 636b6566 c7402474 00b8ffff ffffe936  ckef.@$t.......6
 402510 01000048 8b45f848 89c7e801 e7ffff48  ...H.E.H.......H
 402520 8945e848 837de800 756e488b 45c848ba  .E.H.}..unH.E.H.
 402530 4572726f 723a2044 48891048 b94e5320  Error: DH..H.NS 
 402540 69732075 6e488948 0848be61 626c6520  is unH.H.H.able 
 402550 746f2048 89701048 ba726573 6f6c7665  to H.p.H.resolve
 402560 20488950 1848b973 65727665 72206148   H.P.H.server aH
 402570 894820c7 40286464 726566c7 402c7373  .H .@(ddref.@,ss
 402580 c6402e00 8b45f089 c7e832e6 ffffb8ff  .@...E....2.....
 402590 ffffffe9 b1000000 488d45d0 be100000  ........H.E.....
 4025a0 004889c7 e8f7e6ff ff66c745 d0020048  .H.......f.E...H
 4025b0 8b45e88b 40144863 d0488b45 e8488b40  .E..@.Hc.H.E.H.@
 4025c0 18488b00 488d4dd0 4883c104 4889ce48  .H..H.M.H...H..H
 4025d0 89c7e8a9 e6ffff8b 45f40fb7 c089c7e8  ........E.......
 4025e0 ace5ffff 668945d2 488d4dd0 8b45f0ba  ....f.E.H.M..E..
 4025f0 10000000 4889ce89 c7e8e2e6 ffff85c0  ....H...........
 402600 792b488b 55f8488b 45c8be18 2c400048  y+H.U.H.E...,@.H
 402610 89c7b800 000000e8 a4e6ffff 8b45f089  .............E..
 402620 c7e89ae5 ffffb8ff ffffffeb 1c8b45f0  ..............E.
 402630 89c7e889 e5ffff48 8b45c866 c7004f4b  .......H.E.f..OK
 402640 c6400200 b8000000 00c9c355 4889e548  .@.........UH..H
 402650 83ec3048 897de848 8975e089 55dc4889  ..0H.}.H.u..U.H.
 402660 4dd0837d dc00742a 488b45e0 4889c6bf  M..}..t*H.E.H...
 402670 3e2c4000 b8000000 00e822e5 ffff488b  >,@......."...H.
 402680 45d066c7 004f4bc6 400200b8 00000000  E.f..OK.@.......
 402690 eb5f4883 7de80074 46488b45 e80fb600  ._H.}..tFH.E....
 4026a0 84c0743b 4883ec08 488b55e0 488b45e8  ..t;H...H.U.H.E.
 4026b0 ff75d049 89d141b8 552c4000 4889c1ba  .u.I..A.U,@.H...
 4026c0 5d2c4000 be6e3b00 00bffb2b 4000e81f  ],@..n;....+@...
 4026d0 f6ffff48 83c41089 45fc8b45 fceb1248  ...H....E..E...H
 4026e0 8b45d066 c7004f4b c6400200 b8000000  .E.f..OK.@......
 4026f0 00c9c366 2e0f1f84 00000000 000f1f00  ...f............
 402700 41574189 ff415649 89f64155 4989d541  AWA..AVI..AUI..A
 402710 544c8d25 600b2000 55488d2d 600b2000  TL.%`. .UH.-`. .
 402720 534c29e5 31db48c1 fd034883 ec08e8c5  SL).1.H...H.....
 402730 e3ffff48 85ed741e 0f1f8400 00000000  ...H..t.........
 402740 4c89ea4c 89f64489 ff41ff14 dc4883c3  L..L..D..A...H..
 402750 014839eb 75ea4883 c4085b5d 415c415d  .H9.u.H...[]A\A]
 402760 415e415f c366662e 0f1f8400 00000000  A^A_.ff.........
 402770 f3c3                                 ..              
Contents of section .fini:
 402774 4883ec08 4883c408 c3                 H...H....       
Contents of section .rodata:
 402780 01000200 00000000 72002573 3a204572  ........r.%s: Er
 402790 726f723a 20436f75 6c646e27 74206f70  ror: Couldn't op
 4027a0 656e2025 730a0055 73616765 3a202573  en %s..Usage: %s
 4027b0 205b3c69 6e707574 5f66696c 653e5d0a   [<input_file>].
 4027c0 00000000 00000000 57656c63 6f6d6520  ........Welcome 
 4027d0 746f206d 79206669 656e6469 7368206c  to my fiendish l
 4027e0 6974746c 6520626f 6d622e20 596f7520  ittle bomb. You 
 4027f0 68617665 20362070 68617365 73207769  have 6 phases wi
 402800 74680000 00000000 77686963 6820746f  th......which to
 402810 20626c6f 7720796f 75727365 6c662075   blow yourself u
 402820 702e2048 61766520 61206e69 63652064  p. Have a nice d
 402830 61792100 00000000 50686173 65203120  ay!.....Phase 1 
 402840 64656675 7365642e 20486f77 2061626f  defused. How abo
 402850 75742074 6865206e 65787420 6f6e653f  ut the next one?
 402860 00546861 74277320 6e756d62 65722032  .That's number 2
 402870 2e20204b 65657020 676f696e 67210048  .  Keep going!.H
 402880 616c6677 61792074 68657265 21000000  alfway there!...
 402890 536f2079 6f752067 6f742074 68617420  So you got that 
 4028a0 6f6e652e 20205472 79207468 6973206f  one.  Try this o
 4028b0 6e652e00 476f6f64 20776f72 6b212020  ne..Good work!  
 4028c0 4f6e2074 6f207468 65206e65 78742e2e  On to the next..
 4028d0 2e000000 00000000 4920616d 206a7573  ........I am jus
 4028e0 74206120 72656e65 67616465 20686f63  t a renegade hoc
 4028f0 6b657920 6d6f6d2e 00256420 25640000  key mom..%d %d..
 402900 91104000 00000000 9a104000 00000000  ..@.......@.....
 402910 a3104000 00000000 ac104000 00000000  ..@.......@.....
 402920 b5104000 00000000 be104000 00000000  ..@.......@.....
 402930 c7104000 00000000 d0104000 00000000  ..@.......@.....
 402940 576f7721 20596f75 27766520 64656675  Wow! You've defu
 402950 73656420 74686520 73656372 65742073  sed the secret s
 402960 74616765 21000000 67726561 74776869  tage!...greatwhi
 402970 74652e69 63732e63 732e636d 752e6564  te.ics.cs.cmu.ed
 402980 7500626c 75656669 73682e69 63732e63  u.bluefish.ics.c
 402990 732e636d 752e6564 7500626f 6e69746f  s.cmu.edu.bonito
 4029a0 2e696373 2e63732e 636d752e 65647500  .ics.cs.cmu.edu.
 4029b0 636f6269 612e6963 732e6373 2e636d75  cobia.ics.cs.cmu
 4029c0 2e656475 00000000 536f2079 6f752074  .edu....So you t
 4029d0 68696e6b 20796f75 2063616e 2073746f  hink you can sto
 4029e0 70207468 6520626f 6d622077 69746820  p the bomb with 
 4029f0 6374726c 2d632c20 646f2079 6f753f00  ctrl-c, do you?.
 402a00 57656c6c 2e2e2e00 4f4b2e20 3a2d2900  Well....OK. :-).
 402a10 496e7661 6c696420 70686173 6525730a  Invalid phase%s.
 402a20 00256420 25642025 64202564 20256420  .%d %d %d %d %d 
 402a30 25640045 72726f72 3a205072 656d6174  %d.Error: Premat
 402a40 75726520 454f4620 6f6e2073 7464696e  ure EOF on stdin
 402a50 00475241 44455f42 4f4d4200 4572726f  .GRADE_BOMB.Erro
 402a60 723a2049 6e707574 206c696e 6520746f  r: Input line to
 402a70 6f206c6f 6e67000a 424f4f4d 21212100  o long..BOOM!!!.
 402a80 54686520 626f6d62 20686173 20626c6f  The bomb has blo
 402a90 776e2075 702e0025 64202564 20257300  wn up..%d %d %s.
 402aa0 42656172 43617400 43757273 65732c20  BearCat.Curses, 
 402ab0 796f7527 76652066 6f756e64 20746865  you've found the
 402ac0 20736563 72657420 70686173 65210000   secret phase!..
 402ad0 42757420 66696e64 696e6720 69742061  But finding it a
 402ae0 6e642073 6f6c7669 6e672069 74206172  nd solving it ar
 402af0 65207175 69746520 64696666 6572656e  e quite differen
 402b00 742e2e2e 00000000 436f6e67 72617475  t.......Congratu
 402b10 6c617469 6f6e7321 20596f75 27766520  lations! You've 
 402b20 64656675 73656420 74686520 626f6d62  defused the bomb
 402b30 21000000 00000000 50726f67 72616d20  !.......Program 
 402b40 74696d65 64206f75 74206166 74657220  timed out after 
 402b50 25642073 65636f6e 64730a00 25252530  %d seconds..%%%0
 402b60 32580000 00000000 47455420 2f25732f  2X......GET /%s/
 402b70 7375626d 6974722e 706c2f3f 75736572  submitr.pl/?user
 402b80 69643d25 73266c61 623d2573 26726573  id=%s&lab=%s&res
 402b90 756c743d 25732673 75626d69 743d7375  ult=%s&submit=su
 402ba0 626d6974 20485454 502f312e 300d0a0d  bmit HTTP/1.0...
 402bb0 0a002573 20256420 255b612d 7a412d7a  ..%s %d %[a-zA-z
 402bc0 205d0000 00000000 4572726f 723a2048   ]......Error: H
 402bd0 54545020 72657175 65737420 6661696c  TTP request fail
 402be0 65642077 69746820 6572726f 72202564  ed with error %d
 402bf0 3a202573 000d0a00 4f4b0063 68616e67  : %s....OK.chang
 402c00 656d652e 6963732e 63732e63 6d752e65  eme.ics.cs.cmu.e
 402c10 64750000 00000000 4572726f 723a2055  du......Error: U
 402c20 6e61626c 6520746f 20636f6e 6e656374  nable to connect
 402c30 20746f20 73657276 65722025 73000a41   to server %s..A
 402c40 55544f52 4553554c 545f5354 52494e47  UTORESULT_STRING
 402c50 3d25730a 00626f6d 626c6162 00637361  =%s..bomblab.csa
 402c60 707000                               pp.             
Contents of section .eh_frame_hdr:
 402c64 011b033b 28010000 24000000 bcdeffff  ...;(...$.......
 402c74 74010000 bce0ffff 44010000 b2e1ffff  t.......D.......
 402c84 9c010000 4ae3ffff bc010000 72e3ffff  ....J.......r...
 402c94 dc010000 d3e3ffff fc010000 89e4ffff  ................
 402ca4 1c020000 ffe4ffff 3c020000 7be5ffff  ........<...{...
 402cb4 5c020000 eae5ffff 7c020000 53e7ffff  \.......|...S...
 402cc4 9c020000 c2e7ffff bc020000 24e8ffff  ............$...
 402cd4 dc020000 7fe8ffff fc020000 abe8ffff  ................
 402ce4 1c030000 13e9ffff 3c030000 45e9ffff  ........<...E...
 402cf4 5c030000 c7e9ffff 84030000 dce9ffff  \...............
 402d04 a4030000 e2e9ffff c4030000 39eaffff  ............9...
 402d14 e4030000 9aeaffff 04040000 00ecffff  ................
 402d24 24040000 22ecffff 44040000 a6ecffff  $..."...D.......
 402d34 64040000 d9ecffff 84040000 0aedffff  d...............
 402d44 a4040000 08eeffff c4040000 a5eeffff  ................
 402d54 e4040000 26efffff 04050000 8ef0ffff  ....&...........
 402d64 24050000 bdf7ffff 4c050000 f8f7ffff  $.......L.......
 402d74 6c050000 e7f9ffff 8c050000 9cfaffff  l...............
 402d84 ac050000 0cfbffff f4050000           ............    
Contents of section .eh_frame:
 402d90 14000000 00000000 017a5200 01781001  .........zR..x..
 402da0 1b0c0708 90010710 14000000 1c000000  ................
 402db0 70dfffff 2a000000 00000000 00000000  p...*...........
 402dc0 14000000 00000000 017a5200 01781001  .........zR..x..
 402dd0 1b0c0708 90010000 24000000 1c000000  ........$.......
 402de0 40ddffff 00020000 000e1046 0e184a0f  @..........F..J.
 402df0 0b770880 003f1a3b 2a332422 00000000  .w...?.;*3$"....
 402e00 1c000000 44000000 0ee0ffff 98010000  ....D...........
 402e10 00410e10 8602430d 06039301 0c070800  .A....C.........
 402e20 1c000000 64000000 86e1ffff 28000000  ....d.......(...
 402e30 00410e10 8602430d 06630c07 08000000  .A....C..c......
 402e40 1c000000 84000000 8ee1ffff 61000000  ............a...
 402e50 00410e10 8602430d 06025c0c 07080000  .A....C...\.....
 402e60 1c000000 a4000000 cfe1ffff b6000000  ................
 402e70 00410e10 8602430d 0602b10c 07080000  .A....C.........
 402e80 1c000000 c4000000 65e2ffff 76000000  ........e...v...
 402e90 00410e10 8602430d 0602710c 07080000  .A....C...q.....
 402ea0 1c000000 e4000000 bbe2ffff 7c000000  ............|...
 402eb0 00410e10 8602430d 0602770c 07080000  .A....C...w.....
 402ec0 1c000000 04010000 17e3ffff 6f000000  ............o...
 402ed0 00410e10 8602430d 06026a0c 07080000  .A....C...j.....
 402ee0 1c000000 24010000 66e3ffff 69010000  ....$...f...i...
 402ef0 00410e10 8602430d 06036401 0c070800  .A....C...d.....
 402f00 1c000000 44010000 afe4ffff 6f000000  ....D.......o...
 402f10 00410e10 8602430d 06026a0c 07080000  .A....C...j.....
 402f20 1c000000 64010000 fee4ffff 62000000  ....d.......b...
 402f30 00410e10 8602430d 06025d0c 07080000  .A....C...].....
 402f40 1c000000 84010000 40e5ffff 5b000000  ........@...[...
 402f50 00410e10 8602430d 06000000 00000000  .A....C.........
 402f60 1c000000 a4010000 7be5ffff 2c000000  ........{...,...
 402f70 00410e10 8602430d 06000000 00000000  .A....C.........
 402f80 1c000000 c4010000 87e5ffff 68000000  ............h...
 402f90 00410e10 8602430d 0602630c 07080000  .A....C...c.....
 402fa0 1c000000 e4010000 cfe5ffff 32000000  ............2...
 402fb0 00410e10 8602430d 066d0c07 08000000  .A....C..m......
 402fc0 24000000 04020000 e1e5ffff 82000000  $...............
 402fd0 00410e10 8602430d 06458303 02780c07  .A....C..E...x..
 402fe0 08000000 00000000 1c000000 2c020000  ............,...
 402ff0 3be6ffff 15000000 00410e10 8602430d  ;........A....C.
 403000 06500c07 08000000 1c000000 4c020000  .P..........L...
 403010 30e6ffff 06000000 00410e10 8602430d  0........A....C.
 403020 06410c07 08000000 1c000000 6c020000  .A..........l...
 403030 16e6ffff 57000000 00410e10 8602430d  ....W....A....C.
 403040 0602520c 07080000 1c000000 8c020000  ..R.............
 403050 4de6ffff 61000000 00410e10 8602430d  M...a....A....C.
 403060 06025c0c 07080000 1c000000 ac020000  ..\.............
 403070 8ee6ffff 66010000 00410e10 8602430d  ....f....A....C.
 403080 06036101 0c070800 1c000000 cc020000  ..a.............
 403090 d4e7ffff 22000000 00410e10 8602430d  ...."....A....C.
 4030a0 06000000 00000000 1c000000 ec020000  ................
 4030b0 d6e7ffff 84000000 00410e10 8602430d  .........A....C.
 4030c0 06027f0c 07080000 1c000000 0c030000  ................
 4030d0 3ae8ffff 33000000 00410e10 8602430d  :...3....A....C.
 4030e0 06000000 00000000 1c000000 2c030000  ............,...
 4030f0 4de8ffff 31000000 00410e10 8602430d  M...1....A....C.
 403100 066c0c07 08000000 1c000000 4c030000  .l..........L...
 403110 5ee8ffff fe000000 00410e10 8602430d  ^........A....C.
 403120 0602f90c 07080000 1c000000 6c030000  ............l...
 403130 3ce9ffff 9d000000 00410e10 8602430d  <........A....C.
 403140 0602980c 07080000 1c000000 8c030000  ................
 403150 b9e9ffff 81000000 00410e10 8602430d  .........A....C.
 403160 06027c0c 07080000 1c000000 ac030000  ..|.............
 403170 1aeaffff 68010000 00410e10 8602430d  ....h....A....C.
 403180 06036301 0c070800 24000000 cc030000  ..c.....$.......
 403190 62ebffff 2f070000 00410e10 8602430d  b.../....A....C.
 4031a0 06488303 0322070c 07080000 00000000  .H..."..........
 4031b0 1c000000 f4030000 69f2ffff 3b000000  ........i...;...
 4031c0 00410e10 8602430d 06760c07 08000000  .A....C..v......
 4031d0 1c000000 14040000 84f2ffff ef010000  ................
 4031e0 00410e10 8602430d 0603ea01 0c070800  .A....C.........
 4031f0 1c000000 34040000 53f4ffff a8000000  ....4...S.......
 403200 00410e10 8602430d 0602a30c 07080000  .A....C.........
 403210 44000000 54040000 e8f4ffff 65000000  D...T.......e...
 403220 00420e10 8f02450e 188e0345 0e208d04  .B....E....E. ..
 403230 450e288c 05480e30 8606480e 3883074d  E.(..H.0..H.8..M
 403240 0e406c0e 38410e30 410e2842 0e20420e  .@l.8A.0A.(B. B.
 403250 18420e10 420e0800 14000000 9c040000  .B..B...........
 403260 10f5ffff 02000000 00000000 00000000  ................
 403270 00000000                             ....            
Contents of section .init_array:
 603278 f00d4000 00000000                    ..@.....        
Contents of section .fini_array:
 603280 d00d4000 00000000                    ..@.....        
Contents of section .jcr:
 603288 00000000 00000000                    ........        
Contents of section .dynamic:
 603290 01000000 00000000 01000000 00000000  ................
 6032a0 0c000000 00000000 f80a4000 00000000  ..........@.....
 6032b0 0d000000 00000000 74274000 00000000  ........t'@.....
 6032c0 19000000 00000000 78326000 00000000  ........x2`.....
 6032d0 1b000000 00000000 08000000 00000000  ................
 6032e0 1a000000 00000000 80326000 00000000  .........2`.....
 6032f0 1c000000 00000000 08000000 00000000  ................
 603300 f5feff6f 00000000 60024000 00000000  ...o....`.@.....
 603310 05000000 00000000 d8054000 00000000  ..........@.....
 603320 06000000 00000000 90024000 00000000  ..........@.....
 603330 0a000000 00000000 42010000 00000000  ........B.......
 603340 0b000000 00000000 18000000 00000000  ................
 603350 15000000 00000000 00000000 00000000  ................
 603360 03000000 00000000 68346000 00000000  ........h4`.....
 603370 02000000 00000000 e8020000 00000000  ................
 603380 14000000 00000000 07000000 00000000  ................
 603390 17000000 00000000 10084000 00000000  ..........@.....
 6033a0 07000000 00000000 b0074000 00000000  ..........@.....
 6033b0 08000000 00000000 60000000 00000000  ........`.......
 6033c0 09000000 00000000 18000000 00000000  ................
 6033d0 feffff6f 00000000 60074000 00000000  ...o....`.@.....
 6033e0 ffffff6f 00000000 01000000 00000000  ...o............
 6033f0 f0ffff6f 00000000 1a074000 00000000  ...o......@.....
 603400 00000000 00000000 00000000 00000000  ................
 603410 00000000 00000000 00000000 00000000  ................
 603420 00000000 00000000 00000000 00000000  ................
 603430 00000000 00000000 00000000 00000000  ................
 603440 00000000 00000000 00000000 00000000  ................
 603450 00000000 00000000 00000000 00000000  ................
Contents of section .got:
 603460 00000000 00000000                    ........        
Contents of section .got.plt:
 603468 90326000 00000000 00000000 00000000  .2`.............
 603478 00000000 00000000 360b4000 00000000  ........6.@.....
 603488 460b4000 00000000 560b4000 00000000  F.@.....V.@.....
 603498 660b4000 00000000 760b4000 00000000  f.@.....v.@.....
 6034a8 860b4000 00000000 960b4000 00000000  ..@.......@.....
 6034b8 a60b4000 00000000 b60b4000 00000000  ..@.......@.....
 6034c8 c60b4000 00000000 d60b4000 00000000  ..@.......@.....
 6034d8 e60b4000 00000000 f60b4000 00000000  ..@.......@.....
 6034e8 060c4000 00000000 160c4000 00000000  ..@.......@.....
 6034f8 260c4000 00000000 360c4000 00000000  &.@.....6.@.....
 603508 460c4000 00000000 560c4000 00000000  F.@.....V.@.....
 603518 660c4000 00000000 760c4000 00000000  f.@.....v.@.....
 603528 860c4000 00000000 960c4000 00000000  ..@.......@.....
 603538 a60c4000 00000000 b60c4000 00000000  ..@.......@.....
 603548 c60c4000 00000000 d60c4000 00000000  ..@.......@.....
 603558 e60c4000 00000000 f60c4000 00000000  ..@.......@.....
 603568 060d4000 00000000 160d4000 00000000  ..@.......@.....
Contents of section .data:
 603580 00000000 00000000 00000000 00000000  ................
 603590 00000000 00000000 00000000 00000000  ................
 6035a0 00000000 00000000 00000000 00000000  ................
 6035b0 00000000 00000000 00000000 00000000  ................
 6035c0 6e000000 00000000 00000000 00000000  n...............
 6035d0 e3010000 06000000 00000000 00000000  ................
 6035e0 47000000 05000000 d0356000 00000000  G........5`.....
 6035f0 11020000 04000000 e0356000 00000000  .........5`.....
 603600 ee020000 03000000 f0356000 00000000  .........5`.....
 603610 25020000 02000000 00366000 00000000  %........6`.....
 603620 a6020000 01000000 10366000 00000000  .........6`.....
 603630 e9030000 00000000 00000000 00000000  ................
 603640 00000000 00000000 00000000 00000000  ................
 603650 2f000000 00000000 00000000 00000000  /...............
 603660 00000000 00000000 00000000 00000000  ................
 603670 14000000 00000000 00000000 00000000  ................
 603680 00000000 00000000 00000000 00000000  ................
 603690 07000000 00000000 00000000 00000000  ................
 6036a0 00000000 00000000 00000000 00000000  ................
 6036b0 23000000 00000000 00000000 00000000  #...............
 6036c0 00000000 00000000 00000000 00000000  ................
 6036d0 63000000 00000000 00000000 00000000  c...............
 6036e0 00000000 00000000 00000000 00000000  ................
 6036f0 01000000 00000000 00000000 00000000  ................
 603700 00000000 00000000 00000000 00000000  ................
 603710 28000000 00000000 00000000 00000000  (...............
 603720 00000000 00000000 00000000 00000000  ................
 603730 6b000000 00000000 d0366000 00000000  k........6`.....
 603740 30366000 00000000 00000000 00000000  06`.............
 603750 06000000 00000000 f0366000 00000000  .........6`.....
 603760 90366000 00000000 00000000 00000000  .6`.............
 603770 2d000000 00000000 10376000 00000000  -........7`.....
 603780 50366000 00000000 00000000 00000000  P6`.............
 603790 16000000 00000000 70366000 00000000  ........p6`.....
 6037a0 b0366000 00000000 00000000 00000000  .6`.............
 6037b0 32000000 00000000 70376000 00000000  2.......p7`.....
 6037c0 30376000 00000000 00000000 00000000  07`.............
 6037d0 08000000 00000000 50376000 00000000  ........P7`.....
 6037e0 90376000 00000000 00000000 00000000  .7`.............
 6037f0 24000000 00000000 d0376000 00000000  $........7`.....
 603800 b0376000 00000000 00000000 00000000  .7`.............
 603810 00000000 00000000 00000000 00000000  ................
 603820 00000000 00000000 00000000 00000000  ................
 603830 00000000 00000000 00000000 00000000  ................
 603840 02000000 0a000000 06000000 01000000  ................
 603850 0c000000 10000000 09000000 03000000  ................
 603860 04000000 07000000 0e000000 05000000  ................
 603870 0b000000 08000000 0f000000 0d000000  ................
 603880 68294000 00000000 82294000 00000000  h)@......)@.....
 603890 9a294000 00000000 b0294000 00000000  .)@......)@.....
 6038a0 00000000 00000000 00000000 00000000  ................
 6038b0 00000000 00000000 00000000 00000000  ................
 6038c0 00000000 00000000 00000000 00000000  ................
 6038d0 00000000 00000000 00000000 00000000  ................
 6038e0 00000000 00000000 00000000 00000000  ................
 6038f0 00000000 00000000 00000000 00000000  ................
 603900 00000000 00000000 00000000 00000000  ................
 603910 00000000 00000000 00000000 00000000  ................
 603920 00000000 00000000 00000000 00000000  ................
 603930 00000000 00000000 00000000 00000000  ................
 603940 00000000 00000000 00000000 00000000  ................
 603950 00000000 00000000 00000000 00000000  ................
 603960 00000000 00000000 00000000 00000000  ................
 603970 00000000 00000000 00000000 00000000  ................
 603980 00000000 00000000 00000000 00000000  ................
 603990 00000000 00000000 00000000 00000000  ................
 6039a0 00000000 00000000 00000000 00000000  ................
 6039b0 00000000 00000000 00000000 00000000  ................
 6039c0 00000000 00000000 00000000 00000000  ................
 6039d0 00000000 00000000 00000000 00000000  ................
 6039e0 00000000 00000000 00000000 00000000  ................
 6039f0 00000000 00000000 00000000 00000000  ................
 603a00 00000000 00000000 00000000 00000000  ................
 603a10 00000000 00000000 00000000 00000000  ................
 603a20 00000000 00000000 00000000 00000000  ................
 603a30 00000000 00000000 00000000 00000000  ................
 603a40 00000000 00000000 00000000 00000000  ................
 603a50 00000000 00000000 00000000 00000000  ................
 603a60 00000000 00000000 00000000 00000000  ................
 603a70 00000000 00000000 00000000 00000000  ................
 603a80 00000000 00000000 00000000 00000000  ................
 603a90 00000000 00000000 00000000 00000000  ................
 603aa0 00000000 00000000 00000000 00000000  ................
 603ab0 00000000 00000000 00000000 00000000  ................
 603ac0 00000000 00000000 00000000 00000000  ................
 603ad0 00000000 00000000 00000000 00000000  ................
 603ae0 00000000 00000000 00000000 00000000  ................
 603af0 00000000 00000000 00000000 00000000  ................
 603b00 00000000 00000000 00000000 00000000  ................
 603b10 00000000 00000000 00000000 00000000  ................
 603b20 00000000 00000000 00000000 00000000  ................
 603b30 00000000 00000000 00000000 00000000  ................
 603b40 00000000 00000000 00000000 00000000  ................
 603b50 00000000 00000000 00000000 00000000  ................
 603b60 00000000 00000000 00000000 00000000  ................
 603b70 00000000 00000000 00000000 00000000  ................
 603b80 00000000 00000000 00000000 00000000  ................
 603b90 00000000 00000000 00000000 00000000  ................
 603ba0 00000000 00000000 00000000 00000000  ................
 603bb0 00000000 00000000 00000000 00000000  ................
 603bc0 00000000 00000000 00000000 00000000  ................
 603bd0 00000000 00000000 00000000 00000000  ................
 603be0 00000000 00000000 00000000 00000000  ................
 603bf0 00000000 00000000 00000000 00000000  ................
 603c00 00000000 00000000 00000000 00000000  ................
 603c10 00000000 00000000 00000000 00000000  ................
 603c20 00000000 00000000 00000000 00000000  ................
 603c30 00000000 00000000 00000000 00000000  ................
 603c40 00000000 00000000 00000000 00000000  ................
 603c50 00000000 00000000 00000000 00000000  ................
 603c60 00000000 00000000 00000000 00000000  ................
 603c70 00000000 00000000 00000000 00000000  ................
Contents of section .comment:
 0000 4743433a 20284465 6269616e 20342e39  GCC: (Debian 4.9
 0010 2e322d31 30292034 2e392e32 00474343  .2-10) 4.9.2.GCC
 0020 3a202844 65626961 6e20342e 382e342d  : (Debian 4.8.4-
 0030 31292034 2e382e34 00                 1) 4.8.4.       
Contents of section .debug_aranges:
 0000 2c000000 02000000 00000800 00000000  ,...............
 0010 160e4000 00000000 98010000 00000000  ..@.............
 0020 00000000 00000000 00000000 00000000  ................
Contents of section .debug_info:
 0000 14030000 04000000 00000801 85010000  ................
 0010 01860000 00ba0000 00160e40 00000000  ...........@....
 0020 00980100 00000000 00000000 00021700  ................
 0030 000002d4 38000000 03080733 01000003  ....8......3....
 0040 01087800 00000302 07940000 00030407  ..x.............
 0050 38010000 0301067a 00000003 0205dd01  8......z........
 0060 00000404 05696e74 00030805 bd010000  .....int........
 0070 02740100 00038369 00000002 00000000  .t.....i........
 0080 03846900 00000308 07c60100 00050806  ..i.............
 0090 08950000 00030106 81000000 02220000  ............."..
 00a0 000430a7 00000007 1e000000 d805f527  ..0............'
 00b0 02000008 f7010000 05f66200 00000008  ..........b.....
 00c0 50000000 05fb8f00 00000808 0a000000  P...............
 00d0 05fc8f00 00001008 25020000 05fd8f00  ........%.......
 00e0 00001808 27000000 05fe8f00 00002008  ....'......... .
 00f0 0a020000 05ff8f00 00002809 cf010000  ..........(.....
 0100 0500018f 00000030 094d0100 00050101  .......0.M......
 0110 8f000000 38093600 00000502 018f0000  ....8.6.........
 0120 0040096a 00000005 04018f00 00004809  .@.j..........H.
 0130 e7010000 0505018f 00000050 09ad0000  ...........P....
 0140 00050601 8f000000 5809d900 00000508  ........X.......
 0150 015f0200 00600963 00000005 0a016502  ._...`.c......e.
 0160 00006809 45010000 050c0162 00000070  ..h.E......b...p
 0170 09f70000 00051001 62000000 74090501  ........b...t...
 0180 00000512 01700000 00780922 01000005  .....p...x."....
 0190 16014600 00008009 60010000 05170154  ..F.....`......T
 01a0 00000082 093a0200 00051801 6b020000  .....:......k...
 01b0 83091101 0000051c 017b0200 00880909  .........{......
 01c0 01000005 25017b00 00009009 03020000  ....%.{.........
 01d0 052e018d 00000098 09420000 00052f01  .........B..../.
 01e0 8d000000 a0094900 00000530 018d0000  ......I....0....
 01f0 00a8098d 00000005 31018d00 0000b009  ........1.......
 0200 1e020000 0532012d 000000b8 095d0000  .....2.-.....]..
 0210 00053401 62000000 c0097c01 00000536  ..4.b.....|....6
 0220 01810200 00c4000a e7000000 059a0717  ................
 0230 01000018 05a05f02 0000085a 01000005  ......_....Z....
 0240 a15f0200 000008ff 00000005 a2650200  ._...........e..
 0250 000808e2 00000005 a6620000 00100006  .........b......
 0260 082e0200 000608a7 0000000b 95000000  ................
 0270 7b020000 0c860000 00000006 08270200  {............'..
 0280 000b9500 00009102 00000c86 00000013  ................
 0290 00030805 b8010000 0308072e 0100000d  ................
 02a0 f2000000 01246200 0000160e 40000000  .....$b.....@...
 02b0 00009801 00000000 0000019c eb020000  ................
 02c0 0e6f0100 00012462 00000002 915c0efe  .o....$b.....\..
 02d0 01000001 24eb0200 00029150 0f180200  ....$......P....
 02e0 0001268f 00000002 91680006 088f0000  ..&......h......
 02f0 0010a700 000004a8 65020000 11330200  ........e....3..
 0300 00012211 03000009 03a03c60 00000000  ..".......<`....
 0310 0006089c 00000000                    ........        
Contents of section .debug_abbrev:
 0000 01110125 0e130b03 0e1b0e11 01120710  ...%............
 0010 17000002 1600030e 3a0b3b0b 49130000  ........:.;.I...
 0020 0324000b 0b3e0b03 0e000004 24000b0b  .$...>......$...
 0030 3e0b0308 0000050f 000b0b00 00060f00  >...............
 0040 0b0b4913 00000713 01030e0b 0b3a0b3b  ..I..........:.;
 0050 0b011300 00080d00 030e3a0b 3b0b4913  ..........:.;.I.
 0060 380b0000 090d0003 0e3a0b3b 05491338  8........:.;.I.8
 0070 0b00000a 1600030e 3a0b3b0b 00000b01  ........:.;.....
 0080 01491301 1300000c 21004913 2f0b0000  .I......!.I./...
 0090 0d2e013f 19030e3a 0b3b0b27 19491311  ...?...:.;.'.I..
 00a0 01120740 18964219 01130000 0e050003  ...@..B.........
 00b0 0e3a0b3b 0b491302 1800000f 3400030e  .:.;.I......4...
 00c0 3a0b3b0b 49130218 00001034 00030e3a  :.;.I......4...:
 00d0 0b3b0b49 133f193c 19000011 3400030e  .;.I.?.<....4...
 00e0 3a0b3b0b 49133f19 02180000 00        :.;.I.?......   
Contents of section .debug_line:
 0000 e7000000 0200a400 00000101 fb0e0d00  ................
 0010 01010101 00000001 0000012f 7573722f  .........../usr/
 0020 6c69622f 6763632f 7838365f 36342d6c  lib/gcc/x86_64-l
 0030 696e7578 2d676e75 2f342e39 2f696e63  inux-gnu/4.9/inc
 0040 6c756465 002f7573 722f696e 636c7564  lude./usr/includ
 0050 652f7838 365f3634 2d6c696e 75782d67  e/x86_64-linux-g
 0060 6e752f62 69747300 2f757372 2f696e63  nu/bits./usr/inc
 0070 6c756465 0000626f 6d622e63 00000000  lude..bomb.c....
 0080 73746464 65662e68 00010000 74797065  stddef.h....type
 0090 732e6800 02000073 7464696f 2e680003  s.h....stdio.h..
 00a0 00006c69 62696f2e 68000300 00000009  ..libio.h.......
 00b0 02160e40 00000000 00032401 ec670835  ...@......$..g.5
 00c0 67022b13 022413a4 0883a25a 9fa191bb  g.+..$.....Z....
 00d0 5aa291bb 59a291bb 59a191bb 59a191bb  Z...Y...Y...Y...
 00e0 59a291bb 5d590202 000101             Y...]Y.....     
Contents of section .debug_str:
 0000 5f5f6f66 6636345f 74005f49 4f5f7265  __off64_t._IO_re
 0010 61645f65 6e640073 697a655f 74005f49  ad_end.size_t._I
 0020 4f5f4649 4c45005f 494f5f77 72697465  O_FILE._IO_write
 0030 5f626173 65005f49 4f5f6275 665f656e  _base._IO_buf_en
 0040 64005f5f 70616432 005f5f70 61643300  d.__pad2.__pad3.
 0050 5f494f5f 72656164 5f707472 005f6d6f  _IO_read_ptr._mo
 0060 6465005f 63686169 6e005f49 4f5f7361  de._chain._IO_sa
 0070 76655f62 61736500 756e7369 676e6564  ve_base.unsigned
 0080 20636861 7200626f 6d622e63 005f5f70   char.bomb.c.__p
 0090 61643400 73686f72 7420756e 7369676e  ad4.short unsign
 00a0 65642069 6e740073 7464696e 005f494f  ed int.stdin._IO
 00b0 5f736176 655f656e 64002f68 6f6d652f  _save_end./home/
 00c0 74626172 74656e73 2f435332 32302f70  tbartens/CS220/p
 00d0 726f6a33 2f737263 005f6d61 726b6572  roj3/src._marker
 00e0 73005f70 6f73005f 494f5f6c 6f636b5f  s._pos._IO_lock_
 00f0 74006d61 696e005f 666c6167 7332005f  t.main._flags2._
 0100 73627566 005f6f6c 645f6f66 66736574  sbuf._old_offset
 0110 005f6c6f 636b005f 494f5f6d 61726b65  ._lock._IO_marke
 0120 72005f63 75725f63 6f6c756d 6e006c6f  r._cur_column.lo
 0130 6e67206c 6f6e6720 756e7369 676e6564  ng long unsigned
 0140 20696e74 005f6669 6c656e6f 005f494f   int._fileno._IO
 0150 5f627566 5f626173 65005f6e 65787400  _buf_base._next.
 0160 5f767461 626c655f 6f666673 65740061  _vtable_offset.a
 0170 72676300 5f5f6f66 665f7400 5f756e75  rgc.__off_t._unu
 0180 73656432 00474e55 20432034 2e392e32  sed2.GNU C 4.9.2
 0190 202d6d74 756e653d 67656e65 72696320   -mtune=generic 
 01a0 2d6d6172 63683d78 38362d36 34202d67  -march=x86-64 -g
 01b0 67646220 2d4f3000 6c6f6e67 206c6f6e  gdb -O0.long lon
 01c0 6720696e 74007369 7a657479 7065005f  g int.sizetype._
 01d0 494f5f77 72697465 5f656e64 0073686f  IO_write_end.sho
 01e0 72742069 6e74005f 494f5f62 61636b75  rt int._IO_backu
 01f0 705f6261 7365005f 666c6167 73006172  p_base._flags.ar
 0200 6776005f 5f706164 31005f49 4f5f7772  gv.__pad1._IO_wr
 0210 6974655f 70747200 696e7075 74005f5f  ite_ptr.input.__
 0220 70616435 005f494f 5f726561 645f6261  pad5._IO_read_ba
 0230 73650069 6e66696c 65005f73 686f7274  se.infile._short
 0240 62756600                             buf.            

Disassembly of section .init:

0000000000400af8 <_init>:
_init():
  400af8:	48 83 ec 08          	sub    $0x8,%rsp
  400afc:	48 8b 05 5d 29 20 00 	mov    0x20295d(%rip),%rax        # 603460 <_DYNAMIC+0x1d0>
  400b03:	48 85 c0             	test   %rax,%rax
  400b06:	74 05                	je     400b0d <_init+0x15>
  400b08:	e8 33 01 00 00       	callq  400c40 <__gmon_start__@plt>
  400b0d:	48 83 c4 08          	add    $0x8,%rsp
  400b11:	c3                   	retq   

Disassembly of section .plt:

0000000000400b20 <getenv@plt-0x10>:
  400b20:	ff 35 4a 29 20 00    	pushq  0x20294a(%rip)        # 603470 <_GLOBAL_OFFSET_TABLE_+0x8>
  400b26:	ff 25 4c 29 20 00    	jmpq   *0x20294c(%rip)        # 603478 <_GLOBAL_OFFSET_TABLE_+0x10>
  400b2c:	0f 1f 40 00          	nopl   0x0(%rax)

0000000000400b30 <getenv@plt>:
  400b30:	ff 25 4a 29 20 00    	jmpq   *0x20294a(%rip)        # 603480 <_GLOBAL_OFFSET_TABLE_+0x18>
  400b36:	68 00 00 00 00       	pushq  $0x0
  400b3b:	e9 e0 ff ff ff       	jmpq   400b20 <_init+0x28>

0000000000400b40 <__errno_location@plt>:
  400b40:	ff 25 42 29 20 00    	jmpq   *0x202942(%rip)        # 603488 <_GLOBAL_OFFSET_TABLE_+0x20>
  400b46:	68 01 00 00 00       	pushq  $0x1
  400b4b:	e9 d0 ff ff ff       	jmpq   400b20 <_init+0x28>

0000000000400b50 <strcpy@plt>:
  400b50:	ff 25 3a 29 20 00    	jmpq   *0x20293a(%rip)        # 603490 <_GLOBAL_OFFSET_TABLE_+0x28>
  400b56:	68 02 00 00 00       	pushq  $0x2
  400b5b:	e9 c0 ff ff ff       	jmpq   400b20 <_init+0x28>

0000000000400b60 <puts@plt>:
  400b60:	ff 25 32 29 20 00    	jmpq   *0x202932(%rip)        # 603498 <_GLOBAL_OFFSET_TABLE_+0x30>
  400b66:	68 03 00 00 00       	pushq  $0x3
  400b6b:	e9 b0 ff ff ff       	jmpq   400b20 <_init+0x28>

0000000000400b70 <write@plt>:
  400b70:	ff 25 2a 29 20 00    	jmpq   *0x20292a(%rip)        # 6034a0 <_GLOBAL_OFFSET_TABLE_+0x38>
  400b76:	68 04 00 00 00       	pushq  $0x4
  400b7b:	e9 a0 ff ff ff       	jmpq   400b20 <_init+0x28>

0000000000400b80 <strlen@plt>:
  400b80:	ff 25 22 29 20 00    	jmpq   *0x202922(%rip)        # 6034a8 <_GLOBAL_OFFSET_TABLE_+0x40>
  400b86:	68 05 00 00 00       	pushq  $0x5
  400b8b:	e9 90 ff ff ff       	jmpq   400b20 <_init+0x28>

0000000000400b90 <htons@plt>:
  400b90:	ff 25 1a 29 20 00    	jmpq   *0x20291a(%rip)        # 6034b0 <_GLOBAL_OFFSET_TABLE_+0x48>
  400b96:	68 06 00 00 00       	pushq  $0x6
  400b9b:	e9 80 ff ff ff       	jmpq   400b20 <_init+0x28>

0000000000400ba0 <printf@plt>:
  400ba0:	ff 25 12 29 20 00    	jmpq   *0x202912(%rip)        # 6034b8 <_GLOBAL_OFFSET_TABLE_+0x50>
  400ba6:	68 07 00 00 00       	pushq  $0x7
  400bab:	e9 70 ff ff ff       	jmpq   400b20 <_init+0x28>

0000000000400bb0 <alarm@plt>:
  400bb0:	ff 25 0a 29 20 00    	jmpq   *0x20290a(%rip)        # 6034c0 <_GLOBAL_OFFSET_TABLE_+0x58>
  400bb6:	68 08 00 00 00       	pushq  $0x8
  400bbb:	e9 60 ff ff ff       	jmpq   400b20 <_init+0x28>

0000000000400bc0 <close@plt>:
  400bc0:	ff 25 02 29 20 00    	jmpq   *0x202902(%rip)        # 6034c8 <_GLOBAL_OFFSET_TABLE_+0x60>
  400bc6:	68 09 00 00 00       	pushq  $0x9
  400bcb:	e9 50 ff ff ff       	jmpq   400b20 <_init+0x28>

0000000000400bd0 <read@plt>:
  400bd0:	ff 25 fa 28 20 00    	jmpq   *0x2028fa(%rip)        # 6034d0 <_GLOBAL_OFFSET_TABLE_+0x68>
  400bd6:	68 0a 00 00 00       	pushq  $0xa
  400bdb:	e9 40 ff ff ff       	jmpq   400b20 <_init+0x28>

0000000000400be0 <__libc_start_main@plt>:
  400be0:	ff 25 f2 28 20 00    	jmpq   *0x2028f2(%rip)        # 6034d8 <_GLOBAL_OFFSET_TABLE_+0x70>
  400be6:	68 0b 00 00 00       	pushq  $0xb
  400beb:	e9 30 ff ff ff       	jmpq   400b20 <_init+0x28>

0000000000400bf0 <fgets@plt>:
  400bf0:	ff 25 ea 28 20 00    	jmpq   *0x2028ea(%rip)        # 6034e0 <_GLOBAL_OFFSET_TABLE_+0x78>
  400bf6:	68 0c 00 00 00       	pushq  $0xc
  400bfb:	e9 20 ff ff ff       	jmpq   400b20 <_init+0x28>

0000000000400c00 <strcmp@plt>:
  400c00:	ff 25 e2 28 20 00    	jmpq   *0x2028e2(%rip)        # 6034e8 <_GLOBAL_OFFSET_TABLE_+0x80>
  400c06:	68 0d 00 00 00       	pushq  $0xd
  400c0b:	e9 10 ff ff ff       	jmpq   400b20 <_init+0x28>

0000000000400c10 <signal@plt>:
  400c10:	ff 25 da 28 20 00    	jmpq   *0x2028da(%rip)        # 6034f0 <_GLOBAL_OFFSET_TABLE_+0x88>
  400c16:	68 0e 00 00 00       	pushq  $0xe
  400c1b:	e9 00 ff ff ff       	jmpq   400b20 <_init+0x28>

0000000000400c20 <gethostbyname@plt>:
  400c20:	ff 25 d2 28 20 00    	jmpq   *0x2028d2(%rip)        # 6034f8 <_GLOBAL_OFFSET_TABLE_+0x90>
  400c26:	68 0f 00 00 00       	pushq  $0xf
  400c2b:	e9 f0 fe ff ff       	jmpq   400b20 <_init+0x28>

0000000000400c30 <fprintf@plt>:
  400c30:	ff 25 ca 28 20 00    	jmpq   *0x2028ca(%rip)        # 603500 <_GLOBAL_OFFSET_TABLE_+0x98>
  400c36:	68 10 00 00 00       	pushq  $0x10
  400c3b:	e9 e0 fe ff ff       	jmpq   400b20 <_init+0x28>

0000000000400c40 <__gmon_start__@plt>:
  400c40:	ff 25 c2 28 20 00    	jmpq   *0x2028c2(%rip)        # 603508 <_GLOBAL_OFFSET_TABLE_+0xa0>
  400c46:	68 11 00 00 00       	pushq  $0x11
  400c4b:	e9 d0 fe ff ff       	jmpq   400b20 <_init+0x28>

0000000000400c50 <memcpy@plt>:
  400c50:	ff 25 ba 28 20 00    	jmpq   *0x2028ba(%rip)        # 603510 <_GLOBAL_OFFSET_TABLE_+0xa8>
  400c56:	68 12 00 00 00       	pushq  $0x12
  400c5b:	e9 c0 fe ff ff       	jmpq   400b20 <_init+0x28>

0000000000400c60 <fflush@plt>:
  400c60:	ff 25 b2 28 20 00    	jmpq   *0x2028b2(%rip)        # 603518 <_GLOBAL_OFFSET_TABLE_+0xb0>
  400c66:	68 13 00 00 00       	pushq  $0x13
  400c6b:	e9 b0 fe ff ff       	jmpq   400b20 <_init+0x28>

0000000000400c70 <__isoc99_sscanf@plt>:
  400c70:	ff 25 aa 28 20 00    	jmpq   *0x2028aa(%rip)        # 603520 <_GLOBAL_OFFSET_TABLE_+0xb8>
  400c76:	68 14 00 00 00       	pushq  $0x14
  400c7b:	e9 a0 fe ff ff       	jmpq   400b20 <_init+0x28>

0000000000400c80 <bcopy@plt>:
  400c80:	ff 25 a2 28 20 00    	jmpq   *0x2028a2(%rip)        # 603528 <_GLOBAL_OFFSET_TABLE_+0xc0>
  400c86:	68 15 00 00 00       	pushq  $0x15
  400c8b:	e9 90 fe ff ff       	jmpq   400b20 <_init+0x28>

0000000000400c90 <fopen@plt>:
  400c90:	ff 25 9a 28 20 00    	jmpq   *0x20289a(%rip)        # 603530 <_GLOBAL_OFFSET_TABLE_+0xc8>
  400c96:	68 16 00 00 00       	pushq  $0x16
  400c9b:	e9 80 fe ff ff       	jmpq   400b20 <_init+0x28>

0000000000400ca0 <bzero@plt>:
  400ca0:	ff 25 92 28 20 00    	jmpq   *0x202892(%rip)        # 603538 <_GLOBAL_OFFSET_TABLE_+0xd0>
  400ca6:	68 17 00 00 00       	pushq  $0x17
  400cab:	e9 70 fe ff ff       	jmpq   400b20 <_init+0x28>

0000000000400cb0 <atoi@plt>:
  400cb0:	ff 25 8a 28 20 00    	jmpq   *0x20288a(%rip)        # 603540 <_GLOBAL_OFFSET_TABLE_+0xd8>
  400cb6:	68 18 00 00 00       	pushq  $0x18
  400cbb:	e9 60 fe ff ff       	jmpq   400b20 <_init+0x28>

0000000000400cc0 <sprintf@plt>:
  400cc0:	ff 25 82 28 20 00    	jmpq   *0x202882(%rip)        # 603548 <_GLOBAL_OFFSET_TABLE_+0xe0>
  400cc6:	68 19 00 00 00       	pushq  $0x19
  400ccb:	e9 50 fe ff ff       	jmpq   400b20 <_init+0x28>

0000000000400cd0 <exit@plt>:
  400cd0:	ff 25 7a 28 20 00    	jmpq   *0x20287a(%rip)        # 603550 <_GLOBAL_OFFSET_TABLE_+0xe8>
  400cd6:	68 1a 00 00 00       	pushq  $0x1a
  400cdb:	e9 40 fe ff ff       	jmpq   400b20 <_init+0x28>

0000000000400ce0 <connect@plt>:
  400ce0:	ff 25 72 28 20 00    	jmpq   *0x202872(%rip)        # 603558 <_GLOBAL_OFFSET_TABLE_+0xf0>
  400ce6:	68 1b 00 00 00       	pushq  $0x1b
  400ceb:	e9 30 fe ff ff       	jmpq   400b20 <_init+0x28>

0000000000400cf0 <sleep@plt>:
  400cf0:	ff 25 6a 28 20 00    	jmpq   *0x20286a(%rip)        # 603560 <_GLOBAL_OFFSET_TABLE_+0xf8>
  400cf6:	68 1c 00 00 00       	pushq  $0x1c
  400cfb:	e9 20 fe ff ff       	jmpq   400b20 <_init+0x28>

0000000000400d00 <__ctype_b_loc@plt>:
  400d00:	ff 25 62 28 20 00    	jmpq   *0x202862(%rip)        # 603568 <_GLOBAL_OFFSET_TABLE_+0x100>
  400d06:	68 1d 00 00 00       	pushq  $0x1d
  400d0b:	e9 10 fe ff ff       	jmpq   400b20 <_init+0x28>

0000000000400d10 <socket@plt>:
  400d10:	ff 25 5a 28 20 00    	jmpq   *0x20285a(%rip)        # 603570 <_GLOBAL_OFFSET_TABLE_+0x108>
  400d16:	68 1e 00 00 00       	pushq  $0x1e
  400d1b:	e9 00 fe ff ff       	jmpq   400b20 <_init+0x28>

Disassembly of section .text:

0000000000400d20 <_start>:
_start():
  400d20:	31 ed                	xor    %ebp,%ebp
  400d22:	49 89 d1             	mov    %rdx,%r9
  400d25:	5e                   	pop    %rsi
  400d26:	48 89 e2             	mov    %rsp,%rdx
  400d29:	48 83 e4 f0          	and    $0xfffffffffffffff0,%rsp
  400d2d:	50                   	push   %rax
  400d2e:	54                   	push   %rsp
  400d2f:	49 c7 c0 70 27 40 00 	mov    $0x402770,%r8
  400d36:	48 c7 c1 00 27 40 00 	mov    $0x402700,%rcx
  400d3d:	48 c7 c7 16 0e 40 00 	mov    $0x400e16,%rdi
  400d44:	e8 97 fe ff ff       	callq  400be0 <__libc_start_main@plt>
  400d49:	f4                   	hlt    
  400d4a:	66 0f 1f 44 00 00    	nopw   0x0(%rax,%rax,1)

0000000000400d50 <deregister_tm_clones>:
deregister_tm_clones():
  400d50:	b8 87 3c 60 00       	mov    $0x603c87,%eax
  400d55:	55                   	push   %rbp
  400d56:	48 2d 80 3c 60 00    	sub    $0x603c80,%rax
  400d5c:	48 83 f8 0e          	cmp    $0xe,%rax
  400d60:	48 89 e5             	mov    %rsp,%rbp
  400d63:	76 1b                	jbe    400d80 <deregister_tm_clones+0x30>
  400d65:	b8 00 00 00 00       	mov    $0x0,%eax
  400d6a:	48 85 c0             	test   %rax,%rax
  400d6d:	74 11                	je     400d80 <deregister_tm_clones+0x30>
  400d6f:	5d                   	pop    %rbp
  400d70:	bf 80 3c 60 00       	mov    $0x603c80,%edi
  400d75:	ff e0                	jmpq   *%rax
  400d77:	66 0f 1f 84 00 00 00 	nopw   0x0(%rax,%rax,1)
  400d7e:	00 00 
  400d80:	5d                   	pop    %rbp
  400d81:	c3                   	retq   
  400d82:	66 66 66 66 66 2e 0f 	data16 data16 data16 data16 nopw %cs:0x0(%rax,%rax,1)
  400d89:	1f 84 00 00 00 00 00 

0000000000400d90 <register_tm_clones>:
register_tm_clones():
  400d90:	be 80 3c 60 00       	mov    $0x603c80,%esi
  400d95:	55                   	push   %rbp
  400d96:	48 81 ee 80 3c 60 00 	sub    $0x603c80,%rsi
  400d9d:	48 c1 fe 03          	sar    $0x3,%rsi
  400da1:	48 89 e5             	mov    %rsp,%rbp
  400da4:	48 89 f0             	mov    %rsi,%rax
  400da7:	48 c1 e8 3f          	shr    $0x3f,%rax
  400dab:	48 01 c6             	add    %rax,%rsi
  400dae:	48 d1 fe             	sar    %rsi
  400db1:	74 15                	je     400dc8 <register_tm_clones+0x38>
  400db3:	b8 00 00 00 00       	mov    $0x0,%eax
  400db8:	48 85 c0             	test   %rax,%rax
  400dbb:	74 0b                	je     400dc8 <register_tm_clones+0x38>
  400dbd:	5d                   	pop    %rbp
  400dbe:	bf 80 3c 60 00       	mov    $0x603c80,%edi
  400dc3:	ff e0                	jmpq   *%rax
  400dc5:	0f 1f 00             	nopl   (%rax)
  400dc8:	5d                   	pop    %rbp
  400dc9:	c3                   	retq   
  400dca:	66 0f 1f 44 00 00    	nopw   0x0(%rax,%rax,1)

0000000000400dd0 <__do_global_dtors_aux>:
__do_global_dtors_aux():
  400dd0:	80 3d c1 2e 20 00 00 	cmpb   $0x0,0x202ec1(%rip)        # 603c98 <completed.6661>
  400dd7:	75 11                	jne    400dea <__do_global_dtors_aux+0x1a>
  400dd9:	55                   	push   %rbp
  400dda:	48 89 e5             	mov    %rsp,%rbp
  400ddd:	e8 6e ff ff ff       	callq  400d50 <deregister_tm_clones>
  400de2:	5d                   	pop    %rbp
  400de3:	c6 05 ae 2e 20 00 01 	movb   $0x1,0x202eae(%rip)        # 603c98 <completed.6661>
  400dea:	f3 c3                	repz retq 
  400dec:	0f 1f 40 00          	nopl   0x0(%rax)

0000000000400df0 <frame_dummy>:
frame_dummy():
  400df0:	bf 88 32 60 00       	mov    $0x603288,%edi
  400df5:	48 83 3f 00          	cmpq   $0x0,(%rdi)
  400df9:	75 05                	jne    400e00 <frame_dummy+0x10>
  400dfb:	eb 93                	jmp    400d90 <register_tm_clones>
  400dfd:	0f 1f 00             	nopl   (%rax)
  400e00:	b8 00 00 00 00       	mov    $0x0,%eax
  400e05:	48 85 c0             	test   %rax,%rax
  400e08:	74 f1                	je     400dfb <frame_dummy+0xb>
  400e0a:	55                   	push   %rbp
  400e0b:	48 89 e5             	mov    %rsp,%rbp
  400e0e:	ff d0                	callq  *%rax
  400e10:	5d                   	pop    %rbp
  400e11:	e9 7a ff ff ff       	jmpq   400d90 <register_tm_clones>

0000000000400e16 <main>:
main():
/home/tbartens/CS220/proj3/src/bomb.c:37
  400e16:	55                   	push   %rbp
  400e17:	48 89 e5             	mov    %rsp,%rbp
  400e1a:	48 83 ec 20          	sub    $0x20,%rsp
  400e1e:	89 7d ec             	mov    %edi,-0x14(%rbp)
  400e21:	48 89 75 e0          	mov    %rsi,-0x20(%rbp)
/home/tbartens/CS220/proj3/src/bomb.c:45
  400e25:	83 7d ec 01          	cmpl   $0x1,-0x14(%rbp)
  400e29:	75 13                	jne    400e3e <main+0x28>
/home/tbartens/CS220/proj3/src/bomb.c:46
  400e2b:	48 8b 05 56 2e 20 00 	mov    0x202e56(%rip),%rax        # 603c88 <stdin@@GLIBC_2.2.5>
  400e32:	48 89 05 67 2e 20 00 	mov    %rax,0x202e67(%rip)        # 603ca0 <infile>
  400e39:	e9 82 00 00 00       	jmpq   400ec0 <main+0xaa>
/home/tbartens/CS220/proj3/src/bomb.c:53
  400e3e:	83 7d ec 02          	cmpl   $0x2,-0x14(%rbp)
  400e42:	75 59                	jne    400e9d <main+0x87>
/home/tbartens/CS220/proj3/src/bomb.c:54
  400e44:	48 8b 45 e0          	mov    -0x20(%rbp),%rax
  400e48:	48 83 c0 08          	add    $0x8,%rax
  400e4c:	48 8b 00             	mov    (%rax),%rax
  400e4f:	be 88 27 40 00       	mov    $0x402788,%esi
  400e54:	48 89 c7             	mov    %rax,%rdi
  400e57:	e8 34 fe ff ff       	callq  400c90 <fopen@plt>
  400e5c:	48 89 05 3d 2e 20 00 	mov    %rax,0x202e3d(%rip)        # 603ca0 <infile>
  400e63:	48 8b 05 36 2e 20 00 	mov    0x202e36(%rip),%rax        # 603ca0 <infile>
  400e6a:	48 85 c0             	test   %rax,%rax
  400e6d:	75 51                	jne    400ec0 <main+0xaa>
/home/tbartens/CS220/proj3/src/bomb.c:55
  400e6f:	48 8b 45 e0          	mov    -0x20(%rbp),%rax
  400e73:	48 83 c0 08          	add    $0x8,%rax
  400e77:	48 8b 10             	mov    (%rax),%rdx
  400e7a:	48 8b 45 e0          	mov    -0x20(%rbp),%rax
  400e7e:	48 8b 00             	mov    (%rax),%rax
  400e81:	48 89 c6             	mov    %rax,%rsi
  400e84:	bf 8a 27 40 00       	mov    $0x40278a,%edi
  400e89:	b8 00 00 00 00       	mov    $0x0,%eax
  400e8e:	e8 0d fd ff ff       	callq  400ba0 <printf@plt>
/home/tbartens/CS220/proj3/src/bomb.c:56
  400e93:	bf 08 00 00 00       	mov    $0x8,%edi
  400e98:	e8 33 fe ff ff       	callq  400cd0 <exit@plt>
/home/tbartens/CS220/proj3/src/bomb.c:62
  400e9d:	48 8b 45 e0          	mov    -0x20(%rbp),%rax
  400ea1:	48 8b 00             	mov    (%rax),%rax
  400ea4:	48 89 c6             	mov    %rax,%rsi
  400ea7:	bf a7 27 40 00       	mov    $0x4027a7,%edi
  400eac:	b8 00 00 00 00       	mov    $0x0,%eax
  400eb1:	e8 ea fc ff ff       	callq  400ba0 <printf@plt>
/home/tbartens/CS220/proj3/src/bomb.c:63
  400eb6:	bf 08 00 00 00       	mov    $0x8,%edi
  400ebb:	e8 10 fe ff ff       	callq  400cd0 <exit@plt>
/home/tbartens/CS220/proj3/src/bomb.c:67
  400ec0:	e8 66 07 00 00       	callq  40162b <initialize_bomb>
/home/tbartens/CS220/proj3/src/bomb.c:69
  400ec5:	bf c8 27 40 00       	mov    $0x4027c8,%edi
  400eca:	e8 91 fc ff ff       	callq  400b60 <puts@plt>
/home/tbartens/CS220/proj3/src/bomb.c:70
  400ecf:	bf 08 28 40 00       	mov    $0x402808,%edi
  400ed4:	e8 87 fc ff ff       	callq  400b60 <puts@plt>
/home/tbartens/CS220/proj3/src/bomb.c:73
  400ed9:	e8 20 08 00 00       	callq  4016fe <read_line>
  400ede:	48 89 45 f8          	mov    %rax,-0x8(%rbp)
/home/tbartens/CS220/proj3/src/bomb.c:74
  400ee2:	48 8b 45 f8          	mov    -0x8(%rbp),%rax
  400ee6:	48 89 c7             	mov    %rax,%rdi
  400ee9:	e8 c0 00 00 00       	callq  400fae <phase_1>
/home/tbartens/CS220/proj3/src/bomb.c:75
  400eee:	e8 93 09 00 00       	callq  401886 <phase_defused>
/home/tbartens/CS220/proj3/src/bomb.c:77
  400ef3:	bf 38 28 40 00       	mov    $0x402838,%edi
  400ef8:	e8 63 fc ff ff       	callq  400b60 <puts@plt>
/home/tbartens/CS220/proj3/src/bomb.c:81
  400efd:	e8 fc 07 00 00       	callq  4016fe <read_line>
  400f02:	48 89 45 f8          	mov    %rax,-0x8(%rbp)
/home/tbartens/CS220/proj3/src/bomb.c:82
  400f06:	48 8b 45 f8          	mov    -0x8(%rbp),%rax
  400f0a:	48 89 c7             	mov    %rax,%rdi
  400f0d:	e8 c4 00 00 00       	callq  400fd6 <phase_2>
/home/tbartens/CS220/proj3/src/bomb.c:83
  400f12:	e8 6f 09 00 00       	callq  401886 <phase_defused>
/home/tbartens/CS220/proj3/src/bomb.c:84
  400f17:	bf 61 28 40 00       	mov    $0x402861,%edi
  400f1c:	e8 3f fc ff ff       	callq  400b60 <puts@plt>
/home/tbartens/CS220/proj3/src/bomb.c:88
  400f21:	e8 d8 07 00 00       	callq  4016fe <read_line>
  400f26:	48 89 45 f8          	mov    %rax,-0x8(%rbp)
/home/tbartens/CS220/proj3/src/bomb.c:89
  400f2a:	48 8b 45 f8          	mov    -0x8(%rbp),%rax
  400f2e:	48 89 c7             	mov    %rax,%rdi
  400f31:	e8 01 01 00 00       	callq  401037 <phase_3>
/home/tbartens/CS220/proj3/src/bomb.c:90
  400f36:	e8 4b 09 00 00       	callq  401886 <phase_defused>
/home/tbartens/CS220/proj3/src/bomb.c:91
  400f3b:	bf 7f 28 40 00       	mov    $0x40287f,%edi
  400f40:	e8 1b fc ff ff       	callq  400b60 <puts@plt>
/home/tbartens/CS220/proj3/src/bomb.c:94
  400f45:	e8 b4 07 00 00       	callq  4016fe <read_line>
  400f4a:	48 89 45 f8          	mov    %rax,-0x8(%rbp)
/home/tbartens/CS220/proj3/src/bomb.c:95
  400f4e:	48 8b 45 f8          	mov    -0x8(%rbp),%rax
  400f52:	48 89 c7             	mov    %rax,%rdi
  400f55:	e8 09 02 00 00       	callq  401163 <phase_4>
/home/tbartens/CS220/proj3/src/bomb.c:96
  400f5a:	e8 27 09 00 00       	callq  401886 <phase_defused>
/home/tbartens/CS220/proj3/src/bomb.c:97
  400f5f:	bf 90 28 40 00       	mov    $0x402890,%edi
  400f64:	e8 f7 fb ff ff       	callq  400b60 <puts@plt>
/home/tbartens/CS220/proj3/src/bomb.c:100
  400f69:	e8 90 07 00 00       	callq  4016fe <read_line>
  400f6e:	48 89 45 f8          	mov    %rax,-0x8(%rbp)
/home/tbartens/CS220/proj3/src/bomb.c:101
  400f72:	48 8b 45 f8          	mov    -0x8(%rbp),%rax
  400f76:	48 89 c7             	mov    %rax,%rdi
  400f79:	e8 61 02 00 00       	callq  4011df <phase_5>
/home/tbartens/CS220/proj3/src/bomb.c:102
  400f7e:	e8 03 09 00 00       	callq  401886 <phase_defused>
/home/tbartens/CS220/proj3/src/bomb.c:103
  400f83:	bf b4 28 40 00       	mov    $0x4028b4,%edi
  400f88:	e8 d3 fb ff ff       	callq  400b60 <puts@plt>
/home/tbartens/CS220/proj3/src/bomb.c:107
  400f8d:	e8 6c 07 00 00       	callq  4016fe <read_line>
  400f92:	48 89 45 f8          	mov    %rax,-0x8(%rbp)
/home/tbartens/CS220/proj3/src/bomb.c:108
  400f96:	48 8b 45 f8          	mov    -0x8(%rbp),%rax
  400f9a:	48 89 c7             	mov    %rax,%rdi
  400f9d:	e8 ac 02 00 00       	callq  40124e <phase_6>
/home/tbartens/CS220/proj3/src/bomb.c:109
  400fa2:	e8 df 08 00 00       	callq  401886 <phase_defused>
/home/tbartens/CS220/proj3/src/bomb.c:114
  400fa7:	b8 00 00 00 00       	mov    $0x0,%eax
/home/tbartens/CS220/proj3/src/bomb.c:115
  400fac:	c9                   	leaveq 
  400fad:	c3                   	retq   

0000000000400fae <phase_1>:
phase_1():
  400fae:	55                   	push   %rbp
  400faf:	48 89 e5             	mov    %rsp,%rbp
  400fb2:	48 83 ec 10          	sub    $0x10,%rsp
  400fb6:	48 89 7d f8          	mov    %rdi,-0x8(%rbp)
  400fba:	48 8b 45 f8          	mov    -0x8(%rbp),%rax
  400fbe:	be d8 28 40 00       	mov    $0x4028d8,%esi
  400fc3:	48 89 c7             	mov    %rax,%rdi
  400fc6:	e8 de 05 00 00       	callq  4015a9 <strings_not_equal>
  400fcb:	85 c0                	test   %eax,%eax
  400fcd:	74 05                	je     400fd4 <phase_1+0x26>
  400fcf:	e8 90 08 00 00       	callq  401864 <explode_bomb>
  400fd4:	c9                   	leaveq 
  400fd5:	c3                   	retq   

0000000000400fd6 <phase_2>:
phase_2():
  400fd6:	55                   	push   %rbp
  400fd7:	48 89 e5             	mov    %rsp,%rbp
  400fda:	48 83 ec 30          	sub    $0x30,%rsp
  400fde:	48 89 7d d8          	mov    %rdi,-0x28(%rbp)
  400fe2:	48 8d 55 e0          	lea    -0x20(%rbp),%rdx
  400fe6:	48 8b 45 d8          	mov    -0x28(%rbp),%rax
  400fea:	48 89 d6             	mov    %rdx,%rsi
  400fed:	48 89 c7             	mov    %rax,%rdi
  400ff0:	e8 1a 05 00 00       	callq  40150f <read_six_numbers>
  400ff5:	8b 45 e0             	mov    -0x20(%rbp),%eax
  400ff8:	83 f8 01             	cmp    $0x1,%eax
  400ffb:	74 05                	je     401002 <phase_2+0x2c>
  400ffd:	e8 62 08 00 00       	callq  401864 <explode_bomb>
  401002:	c7 45 fc 01 00 00 00 	movl   $0x1,-0x4(%rbp)
  401009:	eb 24                	jmp    40102f <phase_2+0x59>
  40100b:	8b 45 fc             	mov    -0x4(%rbp),%eax
  40100e:	48 98                	cltq   
  401010:	8b 54 85 e0          	mov    -0x20(%rbp,%rax,4),%edx
  401014:	8b 45 fc             	mov    -0x4(%rbp),%eax
  401017:	83 e8 01             	sub    $0x1,%eax
  40101a:	48 98                	cltq   
  40101c:	8b 44 85 e0          	mov    -0x20(%rbp,%rax,4),%eax
  401020:	01 c0                	add    %eax,%eax
  401022:	39 c2                	cmp    %eax,%edx
  401024:	74 05                	je     40102b <phase_2+0x55>
  401026:	e8 39 08 00 00       	callq  401864 <explode_bomb>
  40102b:	83 45 fc 01          	addl   $0x1,-0x4(%rbp)
  40102f:	83 7d fc 05          	cmpl   $0x5,-0x4(%rbp)
  401033:	7e d6                	jle    40100b <phase_2+0x35>
  401035:	c9                   	leaveq 
  401036:	c3                   	retq   

0000000000401037 <phase_3>:
phase_3():
  401037:	55                   	push   %rbp
  401038:	48 89 e5             	mov    %rsp,%rbp
  40103b:	48 83 ec 20          	sub    $0x20,%rsp
  40103f:	48 89 7d e8          	mov    %rdi,-0x18(%rbp)
  401043:	c7 45 fc 00 00 00 00 	movl   $0x0,-0x4(%rbp)
  40104a:	c7 45 f8 00 00 00 00 	movl   $0x0,-0x8(%rbp)
  401051:	48 8d 4d f0          	lea    -0x10(%rbp),%rcx
  401055:	48 8d 55 f4          	lea    -0xc(%rbp),%rdx
  401059:	48 8b 45 e8          	mov    -0x18(%rbp),%rax
  40105d:	be f9 28 40 00       	mov    $0x4028f9,%esi
  401062:	48 89 c7             	mov    %rax,%rdi
  401065:	b8 00 00 00 00       	mov    $0x0,%eax
  40106a:	e8 01 fc ff ff       	callq  400c70 <__isoc99_sscanf@plt>
  40106f:	89 45 f8             	mov    %eax,-0x8(%rbp)
  401072:	83 7d f8 01          	cmpl   $0x1,-0x8(%rbp)
  401076:	7f 05                	jg     40107d <phase_3+0x46>
  401078:	e8 e7 07 00 00       	callq  401864 <explode_bomb>
  40107d:	8b 45 f4             	mov    -0xc(%rbp),%eax
  401080:	83 f8 07             	cmp    $0x7,%eax
  401083:	77 54                	ja     4010d9 <phase_3+0xa2>
  401085:	89 c0                	mov    %eax,%eax
  401087:	48 8b 04 c5 00 29 40 	mov    0x402900(,%rax,8),%rax
  40108e:	00 
  40108f:	ff e0                	jmpq   *%rax
  401091:	c7 45 fc 92 03 00 00 	movl   $0x392,-0x4(%rbp)
  401098:	eb 44                	jmp    4010de <phase_3+0xa7>
  40109a:	c7 45 fc b6 01 00 00 	movl   $0x1b6,-0x4(%rbp)
  4010a1:	eb 3b                	jmp    4010de <phase_3+0xa7>
  4010a3:	c7 45 fc 1d 02 00 00 	movl   $0x21d,-0x4(%rbp)
  4010aa:	eb 32                	jmp    4010de <phase_3+0xa7>
  4010ac:	c7 45 fc 24 01 00 00 	movl   $0x124,-0x4(%rbp)
  4010b3:	eb 29                	jmp    4010de <phase_3+0xa7>
  4010b5:	c7 45 fc 52 03 00 00 	movl   $0x352,-0x4(%rbp)
  4010bc:	eb 20                	jmp    4010de <phase_3+0xa7>
  4010be:	c7 45 fc 1a 02 00 00 	movl   $0x21a,-0x4(%rbp)
  4010c5:	eb 17                	jmp    4010de <phase_3+0xa7>
  4010c7:	c7 45 fc 7d 03 00 00 	movl   $0x37d,-0x4(%rbp)
  4010ce:	eb 0e                	jmp    4010de <phase_3+0xa7>
  4010d0:	c7 45 fc b2 03 00 00 	movl   $0x3b2,-0x4(%rbp)
  4010d7:	eb 05                	jmp    4010de <phase_3+0xa7>
  4010d9:	e8 86 07 00 00       	callq  401864 <explode_bomb>
  4010de:	8b 45 f0             	mov    -0x10(%rbp),%eax
  4010e1:	39 45 fc             	cmp    %eax,-0x4(%rbp)
  4010e4:	74 05                	je     4010eb <phase_3+0xb4>
  4010e6:	e8 79 07 00 00       	callq  401864 <explode_bomb>
  4010eb:	c9                   	leaveq 
  4010ec:	c3                   	retq   

00000000004010ed <func4>:
func4():
  4010ed:	55                   	push   %rbp
  4010ee:	48 89 e5             	mov    %rsp,%rbp
  4010f1:	48 83 ec 20          	sub    $0x20,%rsp
  4010f5:	89 7d ec             	mov    %edi,-0x14(%rbp)
  4010f8:	89 75 e8             	mov    %esi,-0x18(%rbp)
  4010fb:	89 55 e4             	mov    %edx,-0x1c(%rbp)
  4010fe:	8b 45 e4             	mov    -0x1c(%rbp),%eax
  401101:	2b 45 e8             	sub    -0x18(%rbp),%eax
  401104:	89 c2                	mov    %eax,%edx
  401106:	c1 ea 1f             	shr    $0x1f,%edx
  401109:	01 d0                	add    %edx,%eax
  40110b:	d1 f8                	sar    %eax
  40110d:	89 c2                	mov    %eax,%edx
  40110f:	8b 45 e8             	mov    -0x18(%rbp),%eax
  401112:	01 d0                	add    %edx,%eax
  401114:	89 45 fc             	mov    %eax,-0x4(%rbp)
  401117:	8b 45 fc             	mov    -0x4(%rbp),%eax
  40111a:	3b 45 ec             	cmp    -0x14(%rbp),%eax
  40111d:	7e 19                	jle    401138 <func4+0x4b>
  40111f:	8b 45 fc             	mov    -0x4(%rbp),%eax
  401122:	8d 50 ff             	lea    -0x1(%rax),%edx
  401125:	8b 4d e8             	mov    -0x18(%rbp),%ecx
  401128:	8b 45 ec             	mov    -0x14(%rbp),%eax
  40112b:	89 ce                	mov    %ecx,%esi
  40112d:	89 c7                	mov    %eax,%edi
  40112f:	e8 b9 ff ff ff       	callq  4010ed <func4>
  401134:	01 c0                	add    %eax,%eax
  401136:	eb 29                	jmp    401161 <func4+0x74>
  401138:	8b 45 fc             	mov    -0x4(%rbp),%eax
  40113b:	3b 45 ec             	cmp    -0x14(%rbp),%eax
  40113e:	7d 1c                	jge    40115c <func4+0x6f>
  401140:	8b 45 fc             	mov    -0x4(%rbp),%eax
  401143:	8d 48 01             	lea    0x1(%rax),%ecx
  401146:	8b 55 e4             	mov    -0x1c(%rbp),%edx
  401149:	8b 45 ec             	mov    -0x14(%rbp),%eax
  40114c:	89 ce                	mov    %ecx,%esi
  40114e:	89 c7                	mov    %eax,%edi
  401150:	e8 98 ff ff ff       	callq  4010ed <func4>
  401155:	01 c0                	add    %eax,%eax
  401157:	83 c0 01             	add    $0x1,%eax
  40115a:	eb 05                	jmp    401161 <func4+0x74>
  40115c:	b8 00 00 00 00       	mov    $0x0,%eax
  401161:	c9                   	leaveq 
  401162:	c3                   	retq   

0000000000401163 <phase_4>:
phase_4():
  401163:	55                   	push   %rbp
  401164:	48 89 e5             	mov    %rsp,%rbp
  401167:	48 83 ec 30          	sub    $0x30,%rsp
  40116b:	48 89 7d d8          	mov    %rdi,-0x28(%rbp)
  40116f:	48 8d 4d ec          	lea    -0x14(%rbp),%rcx
  401173:	48 8d 55 f0          	lea    -0x10(%rbp),%rdx
  401177:	48 8b 45 d8          	mov    -0x28(%rbp),%rax
  40117b:	be f9 28 40 00       	mov    $0x4028f9,%esi
  401180:	48 89 c7             	mov    %rax,%rdi
  401183:	b8 00 00 00 00       	mov    $0x0,%eax
  401188:	e8 e3 fa ff ff       	callq  400c70 <__isoc99_sscanf@plt>
  40118d:	89 45 fc             	mov    %eax,-0x4(%rbp)
  401190:	83 7d fc 02          	cmpl   $0x2,-0x4(%rbp)
  401194:	75 0f                	jne    4011a5 <phase_4+0x42>
  401196:	8b 45 f0             	mov    -0x10(%rbp),%eax
  401199:	85 c0                	test   %eax,%eax
  40119b:	78 08                	js     4011a5 <phase_4+0x42>
  40119d:	8b 45 f0             	mov    -0x10(%rbp),%eax
  4011a0:	83 f8 0e             	cmp    $0xe,%eax
  4011a3:	7e 05                	jle    4011aa <phase_4+0x47>
  4011a5:	e8 ba 06 00 00       	callq  401864 <explode_bomb>
  4011aa:	c7 45 f8 03 00 00 00 	movl   $0x3,-0x8(%rbp)
  4011b1:	8b 45 f0             	mov    -0x10(%rbp),%eax
  4011b4:	ba 0e 00 00 00       	mov    $0xe,%edx
  4011b9:	be 00 00 00 00       	mov    $0x0,%esi
  4011be:	89 c7                	mov    %eax,%edi
  4011c0:	e8 28 ff ff ff       	callq  4010ed <func4>
  4011c5:	89 45 f4             	mov    %eax,-0xc(%rbp)
  4011c8:	8b 45 f4             	mov    -0xc(%rbp),%eax
  4011cb:	3b 45 f8             	cmp    -0x8(%rbp),%eax
  4011ce:	75 08                	jne    4011d8 <phase_4+0x75>
  4011d0:	8b 45 ec             	mov    -0x14(%rbp),%eax
  4011d3:	3b 45 f8             	cmp    -0x8(%rbp),%eax
  4011d6:	74 05                	je     4011dd <phase_4+0x7a>
  4011d8:	e8 87 06 00 00       	callq  401864 <explode_bomb>
  4011dd:	c9                   	leaveq 
  4011de:	c3                   	retq   

00000000004011df <phase_5>:
phase_5():
  4011df:	55                   	push   %rbp
  4011e0:	48 89 e5             	mov    %rsp,%rbp
  4011e3:	48 83 ec 20          	sub    $0x20,%rsp
  4011e7:	48 89 7d e8          	mov    %rdi,-0x18(%rbp)
  4011eb:	48 8b 45 e8          	mov    -0x18(%rbp),%rax
  4011ef:	48 89 c7             	mov    %rax,%rdi
  4011f2:	e8 80 03 00 00       	callq  401577 <string_length>
  4011f7:	89 45 f4             	mov    %eax,-0xc(%rbp)
  4011fa:	83 7d f4 06          	cmpl   $0x6,-0xc(%rbp)
  4011fe:	74 05                	je     401205 <phase_5+0x26>
  401200:	e8 5f 06 00 00       	callq  401864 <explode_bomb>
  401205:	c7 45 f8 00 00 00 00 	movl   $0x0,-0x8(%rbp)
  40120c:	c7 45 fc 00 00 00 00 	movl   $0x0,-0x4(%rbp)
  401213:	eb 26                	jmp    40123b <phase_5+0x5c>
  401215:	8b 45 fc             	mov    -0x4(%rbp),%eax
  401218:	48 63 d0             	movslq %eax,%rdx
  40121b:	48 8b 45 e8          	mov    -0x18(%rbp),%rax
  40121f:	48 01 d0             	add    %rdx,%rax
  401222:	0f b6 00             	movzbl (%rax),%eax
  401225:	0f be c0             	movsbl %al,%eax
  401228:	83 e0 0f             	and    $0xf,%eax
  40122b:	48 98                	cltq   
  40122d:	8b 04 85 40 38 60 00 	mov    0x603840(,%rax,4),%eax
  401234:	01 45 f8             	add    %eax,-0x8(%rbp)
  401237:	83 45 fc 01          	addl   $0x1,-0x4(%rbp)
  40123b:	83 7d fc 05          	cmpl   $0x5,-0x4(%rbp)
  40123f:	7e d4                	jle    401215 <phase_5+0x36>
  401241:	83 7d f8 52          	cmpl   $0x52,-0x8(%rbp)
  401245:	74 05                	je     40124c <phase_5+0x6d>
  401247:	e8 18 06 00 00       	callq  401864 <explode_bomb>
  40124c:	c9                   	leaveq 
  40124d:	c3                   	retq   

000000000040124e <phase_6>:
phase_6():
  40124e:	55                   	push   %rbp
  40124f:	48 89 e5             	mov    %rsp,%rbp
  401252:	48 83 ec 70          	sub    $0x70,%rsp
  401256:	48 89 7d 98          	mov    %rdi,-0x68(%rbp)
  40125a:	48 c7 45 e8 20 36 60 	movq   $0x603620,-0x18(%rbp)
  401261:	00 
  401262:	48 8d 55 d0          	lea    -0x30(%rbp),%rdx
  401266:	48 8b 45 98          	mov    -0x68(%rbp),%rax
  40126a:	48 89 d6             	mov    %rdx,%rsi
  40126d:	48 89 c7             	mov    %rax,%rdi
  401270:	e8 9a 02 00 00       	callq  40150f <read_six_numbers>
  401275:	c7 45 f4 00 00 00 00 	movl   $0x0,-0xc(%rbp)
  40127c:	eb 54                	jmp    4012d2 <phase_6+0x84>
  40127e:	8b 45 f4             	mov    -0xc(%rbp),%eax
  401281:	48 98                	cltq   
  401283:	8b 44 85 d0          	mov    -0x30(%rbp,%rax,4),%eax
  401287:	85 c0                	test   %eax,%eax
  401289:	7e 0e                	jle    401299 <phase_6+0x4b>
  40128b:	8b 45 f4             	mov    -0xc(%rbp),%eax
  40128e:	48 98                	cltq   
  401290:	8b 44 85 d0          	mov    -0x30(%rbp,%rax,4),%eax
  401294:	83 f8 06             	cmp    $0x6,%eax
  401297:	7e 05                	jle    40129e <phase_6+0x50>
  401299:	e8 c6 05 00 00       	callq  401864 <explode_bomb>
  40129e:	8b 45 f4             	mov    -0xc(%rbp),%eax
  4012a1:	83 c0 01             	add    $0x1,%eax
  4012a4:	89 45 f0             	mov    %eax,-0x10(%rbp)
  4012a7:	eb 1f                	jmp    4012c8 <phase_6+0x7a>
  4012a9:	8b 45 f4             	mov    -0xc(%rbp),%eax
  4012ac:	48 98                	cltq   
  4012ae:	8b 54 85 d0          	mov    -0x30(%rbp,%rax,4),%edx
  4012b2:	8b 45 f0             	mov    -0x10(%rbp),%eax
  4012b5:	48 98                	cltq   
  4012b7:	8b 44 85 d0          	mov    -0x30(%rbp,%rax,4),%eax
  4012bb:	39 c2                	cmp    %eax,%edx
  4012bd:	75 05                	jne    4012c4 <phase_6+0x76>
  4012bf:	e8 a0 05 00 00       	callq  401864 <explode_bomb>
  4012c4:	83 45 f0 01          	addl   $0x1,-0x10(%rbp)
  4012c8:	83 7d f0 05          	cmpl   $0x5,-0x10(%rbp)
  4012cc:	7e db                	jle    4012a9 <phase_6+0x5b>
  4012ce:	83 45 f4 01          	addl   $0x1,-0xc(%rbp)
  4012d2:	83 7d f4 05          	cmpl   $0x5,-0xc(%rbp)
  4012d6:	7e a6                	jle    40127e <phase_6+0x30>
  4012d8:	c7 45 f4 00 00 00 00 	movl   $0x0,-0xc(%rbp)
  4012df:	eb 41                	jmp    401322 <phase_6+0xd4>
  4012e1:	48 8b 45 e8          	mov    -0x18(%rbp),%rax
  4012e5:	48 89 45 f8          	mov    %rax,-0x8(%rbp)
  4012e9:	c7 45 f0 01 00 00 00 	movl   $0x1,-0x10(%rbp)
  4012f0:	eb 10                	jmp    401302 <phase_6+0xb4>
  4012f2:	48 8b 45 f8          	mov    -0x8(%rbp),%rax
  4012f6:	48 8b 40 08          	mov    0x8(%rax),%rax
  4012fa:	48 89 45 f8          	mov    %rax,-0x8(%rbp)
  4012fe:	83 45 f0 01          	addl   $0x1,-0x10(%rbp)
  401302:	8b 45 f4             	mov    -0xc(%rbp),%eax
  401305:	48 98                	cltq   
  401307:	8b 44 85 d0          	mov    -0x30(%rbp,%rax,4),%eax
  40130b:	3b 45 f0             	cmp    -0x10(%rbp),%eax
  40130e:	7f e2                	jg     4012f2 <phase_6+0xa4>
  401310:	8b 45 f4             	mov    -0xc(%rbp),%eax
  401313:	48 98                	cltq   
  401315:	48 8b 55 f8          	mov    -0x8(%rbp),%rdx
  401319:	48 89 54 c5 a0       	mov    %rdx,-0x60(%rbp,%rax,8)
  40131e:	83 45 f4 01          	addl   $0x1,-0xc(%rbp)
  401322:	83 7d f4 05          	cmpl   $0x5,-0xc(%rbp)
  401326:	7e b9                	jle    4012e1 <phase_6+0x93>
  401328:	48 8b 45 a0          	mov    -0x60(%rbp),%rax
  40132c:	48 89 45 e8          	mov    %rax,-0x18(%rbp)
  401330:	48 8b 45 e8          	mov    -0x18(%rbp),%rax
  401334:	48 89 45 f8          	mov    %rax,-0x8(%rbp)
  401338:	c7 45 f4 01 00 00 00 	movl   $0x1,-0xc(%rbp)
  40133f:	eb 22                	jmp    401363 <phase_6+0x115>
  401341:	8b 45 f4             	mov    -0xc(%rbp),%eax
  401344:	48 98                	cltq   
  401346:	48 8b 54 c5 a0       	mov    -0x60(%rbp,%rax,8),%rdx
  40134b:	48 8b 45 f8          	mov    -0x8(%rbp),%rax
  40134f:	48 89 50 08          	mov    %rdx,0x8(%rax)
  401353:	48 8b 45 f8          	mov    -0x8(%rbp),%rax
  401357:	48 8b 40 08          	mov    0x8(%rax),%rax
  40135b:	48 89 45 f8          	mov    %rax,-0x8(%rbp)
  40135f:	83 45 f4 01          	addl   $0x1,-0xc(%rbp)
  401363:	83 7d f4 05          	cmpl   $0x5,-0xc(%rbp)
  401367:	7e d8                	jle    401341 <phase_6+0xf3>
  401369:	48 8b 45 f8          	mov    -0x8(%rbp),%rax
  40136d:	48 c7 40 08 00 00 00 	movq   $0x0,0x8(%rax)
  401374:	00 
  401375:	48 8b 45 e8          	mov    -0x18(%rbp),%rax
  401379:	48 89 45 f8          	mov    %rax,-0x8(%rbp)
  40137d:	c7 45 f4 00 00 00 00 	movl   $0x0,-0xc(%rbp)
  401384:	eb 29                	jmp    4013af <phase_6+0x161>
  401386:	48 8b 45 f8          	mov    -0x8(%rbp),%rax
  40138a:	8b 10                	mov    (%rax),%edx
  40138c:	48 8b 45 f8          	mov    -0x8(%rbp),%rax
  401390:	48 8b 40 08          	mov    0x8(%rax),%rax
  401394:	8b 00                	mov    (%rax),%eax
  401396:	39 c2                	cmp    %eax,%edx
  401398:	7d 05                	jge    40139f <phase_6+0x151>
  40139a:	e8 c5 04 00 00       	callq  401864 <explode_bomb>
  40139f:	48 8b 45 f8          	mov    -0x8(%rbp),%rax
  4013a3:	48 8b 40 08          	mov    0x8(%rax),%rax
  4013a7:	48 89 45 f8          	mov    %rax,-0x8(%rbp)
  4013ab:	83 45 f4 01          	addl   $0x1,-0xc(%rbp)
  4013af:	83 7d f4 04          	cmpl   $0x4,-0xc(%rbp)
  4013b3:	7e d1                	jle    401386 <phase_6+0x138>
  4013b5:	c9                   	leaveq 
  4013b6:	c3                   	retq   

00000000004013b7 <fun7>:
fun7():
  4013b7:	55                   	push   %rbp
  4013b8:	48 89 e5             	mov    %rsp,%rbp
  4013bb:	48 83 ec 10          	sub    $0x10,%rsp
  4013bf:	48 89 7d f8          	mov    %rdi,-0x8(%rbp)
  4013c3:	89 75 f4             	mov    %esi,-0xc(%rbp)
  4013c6:	48 83 7d f8 00       	cmpq   $0x0,-0x8(%rbp)
  4013cb:	75 07                	jne    4013d4 <fun7+0x1d>
  4013cd:	b8 ff ff ff ff       	mov    $0xffffffff,%eax
  4013d2:	eb 50                	jmp    401424 <fun7+0x6d>
  4013d4:	48 8b 45 f8          	mov    -0x8(%rbp),%rax
  4013d8:	8b 00                	mov    (%rax),%eax
  4013da:	3b 45 f4             	cmp    -0xc(%rbp),%eax
  4013dd:	7e 19                	jle    4013f8 <fun7+0x41>
  4013df:	48 8b 45 f8          	mov    -0x8(%rbp),%rax
  4013e3:	48 8b 40 08          	mov    0x8(%rax),%rax
  4013e7:	8b 55 f4             	mov    -0xc(%rbp),%edx
  4013ea:	89 d6                	mov    %edx,%esi
  4013ec:	48 89 c7             	mov    %rax,%rdi
  4013ef:	e8 c3 ff ff ff       	callq  4013b7 <fun7>
  4013f4:	01 c0                	add    %eax,%eax
  4013f6:	eb 2c                	jmp    401424 <fun7+0x6d>
  4013f8:	48 8b 45 f8          	mov    -0x8(%rbp),%rax
  4013fc:	8b 00                	mov    (%rax),%eax
  4013fe:	3b 45 f4             	cmp    -0xc(%rbp),%eax
  401401:	75 07                	jne    40140a <fun7+0x53>
  401403:	b8 00 00 00 00       	mov    $0x0,%eax
  401408:	eb 1a                	jmp    401424 <fun7+0x6d>
  40140a:	48 8b 45 f8          	mov    -0x8(%rbp),%rax
  40140e:	48 8b 40 10          	mov    0x10(%rax),%rax
  401412:	8b 55 f4             	mov    -0xc(%rbp),%edx
  401415:	89 d6                	mov    %edx,%esi
  401417:	48 89 c7             	mov    %rax,%rdi
  40141a:	e8 98 ff ff ff       	callq  4013b7 <fun7>
  40141f:	01 c0                	add    %eax,%eax
  401421:	83 c0 01             	add    $0x1,%eax
  401424:	c9                   	leaveq 
  401425:	c3                   	retq   

0000000000401426 <secret_phase>:
secret_phase():
  401426:	55                   	push   %rbp
  401427:	48 89 e5             	mov    %rsp,%rbp
  40142a:	48 83 ec 10          	sub    $0x10,%rsp
  40142e:	e8 cb 02 00 00       	callq  4016fe <read_line>
  401433:	48 89 45 f8          	mov    %rax,-0x8(%rbp)
  401437:	48 8b 45 f8          	mov    -0x8(%rbp),%rax
  40143b:	48 89 c7             	mov    %rax,%rdi
  40143e:	e8 6d f8 ff ff       	callq  400cb0 <atoi@plt>
  401443:	89 45 f4             	mov    %eax,-0xc(%rbp)
  401446:	83 7d f4 00          	cmpl   $0x0,-0xc(%rbp)
  40144a:	7e 09                	jle    401455 <secret_phase+0x2f>
  40144c:	81 7d f4 e9 03 00 00 	cmpl   $0x3e9,-0xc(%rbp)
  401453:	7e 05                	jle    40145a <secret_phase+0x34>
  401455:	e8 0a 04 00 00       	callq  401864 <explode_bomb>
  40145a:	8b 45 f4             	mov    -0xc(%rbp),%eax
  40145d:	89 c6                	mov    %eax,%esi
  40145f:	bf f0 37 60 00       	mov    $0x6037f0,%edi
  401464:	e8 4e ff ff ff       	callq  4013b7 <fun7>
  401469:	89 45 f0             	mov    %eax,-0x10(%rbp)
  40146c:	83 7d f0 04          	cmpl   $0x4,-0x10(%rbp)
  401470:	74 05                	je     401477 <secret_phase+0x51>
  401472:	e8 ed 03 00 00       	callq  401864 <explode_bomb>
  401477:	bf 40 29 40 00       	mov    $0x402940,%edi
  40147c:	e8 df f6 ff ff       	callq  400b60 <puts@plt>
  401481:	e8 00 04 00 00       	callq  401886 <phase_defused>
  401486:	c9                   	leaveq 
  401487:	c3                   	retq   

0000000000401488 <sig_handler>:
sig_handler():
  401488:	55                   	push   %rbp
  401489:	48 89 e5             	mov    %rsp,%rbp
  40148c:	48 83 ec 10          	sub    $0x10,%rsp
  401490:	89 7d fc             	mov    %edi,-0x4(%rbp)
  401493:	bf c8 29 40 00       	mov    $0x4029c8,%edi
  401498:	e8 c3 f6 ff ff       	callq  400b60 <puts@plt>
  40149d:	bf 03 00 00 00       	mov    $0x3,%edi
  4014a2:	e8 49 f8 ff ff       	callq  400cf0 <sleep@plt>
  4014a7:	bf 00 2a 40 00       	mov    $0x402a00,%edi
  4014ac:	b8 00 00 00 00       	mov    $0x0,%eax
  4014b1:	e8 ea f6 ff ff       	callq  400ba0 <printf@plt>
  4014b6:	48 8b 05 c3 27 20 00 	mov    0x2027c3(%rip),%rax        # 603c80 <__TMC_END__>
  4014bd:	48 89 c7             	mov    %rax,%rdi
  4014c0:	e8 9b f7 ff ff       	callq  400c60 <fflush@plt>
  4014c5:	bf 01 00 00 00       	mov    $0x1,%edi
  4014ca:	e8 21 f8 ff ff       	callq  400cf0 <sleep@plt>
  4014cf:	bf 08 2a 40 00       	mov    $0x402a08,%edi
  4014d4:	e8 87 f6 ff ff       	callq  400b60 <puts@plt>
  4014d9:	bf 10 00 00 00       	mov    $0x10,%edi
  4014de:	e8 ed f7 ff ff       	callq  400cd0 <exit@plt>

00000000004014e3 <invalid_phase>:
invalid_phase():
  4014e3:	55                   	push   %rbp
  4014e4:	48 89 e5             	mov    %rsp,%rbp
  4014e7:	48 83 ec 10          	sub    $0x10,%rsp
  4014eb:	48 89 7d f8          	mov    %rdi,-0x8(%rbp)
  4014ef:	48 8b 45 f8          	mov    -0x8(%rbp),%rax
  4014f3:	48 89 c6             	mov    %rax,%rsi
  4014f6:	bf 10 2a 40 00       	mov    $0x402a10,%edi
  4014fb:	b8 00 00 00 00       	mov    $0x0,%eax
  401500:	e8 9b f6 ff ff       	callq  400ba0 <printf@plt>
  401505:	bf 08 00 00 00       	mov    $0x8,%edi
  40150a:	e8 c1 f7 ff ff       	callq  400cd0 <exit@plt>

000000000040150f <read_six_numbers>:
read_six_numbers():
  40150f:	55                   	push   %rbp
  401510:	48 89 e5             	mov    %rsp,%rbp
  401513:	48 83 ec 20          	sub    $0x20,%rsp
  401517:	48 89 7d e8          	mov    %rdi,-0x18(%rbp)
  40151b:	48 89 75 e0          	mov    %rsi,-0x20(%rbp)
  40151f:	48 8b 45 e0          	mov    -0x20(%rbp),%rax
  401523:	48 8d 78 14          	lea    0x14(%rax),%rdi
  401527:	48 8b 45 e0          	mov    -0x20(%rbp),%rax
  40152b:	48 8d 70 10          	lea    0x10(%rax),%rsi
  40152f:	48 8b 45 e0          	mov    -0x20(%rbp),%rax
  401533:	4c 8d 48 0c          	lea    0xc(%rax),%r9
  401537:	48 8b 45 e0          	mov    -0x20(%rbp),%rax
  40153b:	4c 8d 40 08          	lea    0x8(%rax),%r8
  40153f:	48 8b 45 e0          	mov    -0x20(%rbp),%rax
  401543:	48 8d 48 04          	lea    0x4(%rax),%rcx
  401547:	48 8b 55 e0          	mov    -0x20(%rbp),%rdx
  40154b:	48 8b 45 e8          	mov    -0x18(%rbp),%rax
  40154f:	57                   	push   %rdi
  401550:	56                   	push   %rsi
  401551:	be 21 2a 40 00       	mov    $0x402a21,%esi
  401556:	48 89 c7             	mov    %rax,%rdi
  401559:	b8 00 00 00 00       	mov    $0x0,%eax
  40155e:	e8 0d f7 ff ff       	callq  400c70 <__isoc99_sscanf@plt>
  401563:	48 83 c4 10          	add    $0x10,%rsp
  401567:	89 45 fc             	mov    %eax,-0x4(%rbp)
  40156a:	83 7d fc 05          	cmpl   $0x5,-0x4(%rbp)
  40156e:	7f 05                	jg     401575 <read_six_numbers+0x66>
  401570:	e8 ef 02 00 00       	callq  401864 <explode_bomb>
  401575:	c9                   	leaveq 
  401576:	c3                   	retq   

0000000000401577 <string_length>:
string_length():
  401577:	55                   	push   %rbp
  401578:	48 89 e5             	mov    %rsp,%rbp
  40157b:	48 89 7d e8          	mov    %rdi,-0x18(%rbp)
  40157f:	48 8b 45 e8          	mov    -0x18(%rbp),%rax
  401583:	48 89 45 f0          	mov    %rax,-0x10(%rbp)
  401587:	c7 45 fc 00 00 00 00 	movl   $0x0,-0x4(%rbp)
  40158e:	eb 09                	jmp    401599 <string_length+0x22>
  401590:	48 83 45 f0 01       	addq   $0x1,-0x10(%rbp)
  401595:	83 45 fc 01          	addl   $0x1,-0x4(%rbp)
  401599:	48 8b 45 f0          	mov    -0x10(%rbp),%rax
  40159d:	0f b6 00             	movzbl (%rax),%eax
  4015a0:	84 c0                	test   %al,%al
  4015a2:	75 ec                	jne    401590 <string_length+0x19>
  4015a4:	8b 45 fc             	mov    -0x4(%rbp),%eax
  4015a7:	5d                   	pop    %rbp
  4015a8:	c3                   	retq   

00000000004015a9 <strings_not_equal>:
strings_not_equal():
  4015a9:	55                   	push   %rbp
  4015aa:	48 89 e5             	mov    %rsp,%rbp
  4015ad:	53                   	push   %rbx
  4015ae:	48 83 ec 20          	sub    $0x20,%rsp
  4015b2:	48 89 7d e0          	mov    %rdi,-0x20(%rbp)
  4015b6:	48 89 75 d8          	mov    %rsi,-0x28(%rbp)
  4015ba:	48 8b 45 e0          	mov    -0x20(%rbp),%rax
  4015be:	48 89 c7             	mov    %rax,%rdi
  4015c1:	e8 b1 ff ff ff       	callq  401577 <string_length>
  4015c6:	89 c3                	mov    %eax,%ebx
  4015c8:	48 8b 45 d8          	mov    -0x28(%rbp),%rax
  4015cc:	48 89 c7             	mov    %rax,%rdi
  4015cf:	e8 a3 ff ff ff       	callq  401577 <string_length>
  4015d4:	39 c3                	cmp    %eax,%ebx
  4015d6:	74 07                	je     4015df <strings_not_equal+0x36>
  4015d8:	b8 01 00 00 00       	mov    $0x1,%eax
  4015dd:	eb 45                	jmp    401624 <strings_not_equal+0x7b>
  4015df:	48 8b 45 e0          	mov    -0x20(%rbp),%rax
  4015e3:	48 89 45 f0          	mov    %rax,-0x10(%rbp)
  4015e7:	48 8b 45 d8          	mov    -0x28(%rbp),%rax
  4015eb:	48 89 45 e8          	mov    %rax,-0x18(%rbp)
  4015ef:	eb 23                	jmp    401614 <strings_not_equal+0x6b>
  4015f1:	48 8b 45 f0          	mov    -0x10(%rbp),%rax
  4015f5:	0f b6 10             	movzbl (%rax),%edx
  4015f8:	48 8b 45 e8          	mov    -0x18(%rbp),%rax
  4015fc:	0f b6 00             	movzbl (%rax),%eax
  4015ff:	38 c2                	cmp    %al,%dl
  401601:	74 07                	je     40160a <strings_not_equal+0x61>
  401603:	b8 01 00 00 00       	mov    $0x1,%eax
  401608:	eb 1a                	jmp    401624 <strings_not_equal+0x7b>
  40160a:	48 83 45 f0 01       	addq   $0x1,-0x10(%rbp)
  40160f:	48 83 45 e8 01       	addq   $0x1,-0x18(%rbp)
  401614:	48 8b 45 f0          	mov    -0x10(%rbp),%rax
  401618:	0f b6 00             	movzbl (%rax),%eax
  40161b:	84 c0                	test   %al,%al
  40161d:	75 d2                	jne    4015f1 <strings_not_equal+0x48>
  40161f:	b8 00 00 00 00       	mov    $0x0,%eax
  401624:	48 83 c4 20          	add    $0x20,%rsp
  401628:	5b                   	pop    %rbx
  401629:	5d                   	pop    %rbp
  40162a:	c3                   	retq   

000000000040162b <initialize_bomb>:
initialize_bomb():
  40162b:	55                   	push   %rbp
  40162c:	48 89 e5             	mov    %rsp,%rbp
  40162f:	be 88 14 40 00       	mov    $0x401488,%esi
  401634:	bf 02 00 00 00       	mov    $0x2,%edi
  401639:	e8 d2 f5 ff ff       	callq  400c10 <signal@plt>
  40163e:	5d                   	pop    %rbp
  40163f:	c3                   	retq   

0000000000401640 <initialize_bomb_solve>:
initialize_bomb_solve():
  401640:	55                   	push   %rbp
  401641:	48 89 e5             	mov    %rsp,%rbp
  401644:	5d                   	pop    %rbp
  401645:	c3                   	retq   

0000000000401646 <blank_line>:
blank_line():
  401646:	55                   	push   %rbp
  401647:	48 89 e5             	mov    %rsp,%rbp
  40164a:	48 83 ec 10          	sub    $0x10,%rsp
  40164e:	48 89 7d f8          	mov    %rdi,-0x8(%rbp)
  401652:	eb 37                	jmp    40168b <blank_line+0x45>
  401654:	e8 a7 f6 ff ff       	callq  400d00 <__ctype_b_loc@plt>
  401659:	48 8b 08             	mov    (%rax),%rcx
  40165c:	48 8b 45 f8          	mov    -0x8(%rbp),%rax
  401660:	48 8d 50 01          	lea    0x1(%rax),%rdx
  401664:	48 89 55 f8          	mov    %rdx,-0x8(%rbp)
  401668:	0f b6 00             	movzbl (%rax),%eax
  40166b:	48 0f be c0          	movsbq %al,%rax
  40166f:	48 01 c0             	add    %rax,%rax
  401672:	48 01 c8             	add    %rcx,%rax
  401675:	0f b7 00             	movzwl (%rax),%eax
  401678:	0f b7 c0             	movzwl %ax,%eax
  40167b:	25 00 20 00 00       	and    $0x2000,%eax
  401680:	85 c0                	test   %eax,%eax
  401682:	75 07                	jne    40168b <blank_line+0x45>
  401684:	b8 00 00 00 00       	mov    $0x0,%eax
  401689:	eb 10                	jmp    40169b <blank_line+0x55>
  40168b:	48 8b 45 f8          	mov    -0x8(%rbp),%rax
  40168f:	0f b6 00             	movzbl (%rax),%eax
  401692:	84 c0                	test   %al,%al
  401694:	75 be                	jne    401654 <blank_line+0xe>
  401696:	b8 01 00 00 00       	mov    $0x1,%eax
  40169b:	c9                   	leaveq 
  40169c:	c3                   	retq   

000000000040169d <skip>:
skip():
  40169d:	55                   	push   %rbp
  40169e:	48 89 e5             	mov    %rsp,%rbp
  4016a1:	48 83 ec 10          	sub    $0x10,%rsp
  4016a5:	48 8b 0d f4 25 20 00 	mov    0x2025f4(%rip),%rcx        # 603ca0 <infile>
  4016ac:	8b 05 ea 25 20 00    	mov    0x2025ea(%rip),%eax        # 603c9c <num_input_strings>
  4016b2:	48 63 d0             	movslq %eax,%rdx
  4016b5:	48 89 d0             	mov    %rdx,%rax
  4016b8:	48 c1 e0 02          	shl    $0x2,%rax
  4016bc:	48 01 d0             	add    %rdx,%rax
  4016bf:	48 c1 e0 04          	shl    $0x4,%rax
  4016c3:	48 05 c0 3c 60 00    	add    $0x603cc0,%rax
  4016c9:	48 89 ca             	mov    %rcx,%rdx
  4016cc:	be 50 00 00 00       	mov    $0x50,%esi
  4016d1:	48 89 c7             	mov    %rax,%rdi
  4016d4:	e8 17 f5 ff ff       	callq  400bf0 <fgets@plt>
  4016d9:	48 89 45 f8          	mov    %rax,-0x8(%rbp)
  4016dd:	48 83 7d f8 00       	cmpq   $0x0,-0x8(%rbp)
  4016e2:	74 10                	je     4016f4 <skip+0x57>
  4016e4:	48 8b 45 f8          	mov    -0x8(%rbp),%rax
  4016e8:	48 89 c7             	mov    %rax,%rdi
  4016eb:	e8 56 ff ff ff       	callq  401646 <blank_line>
  4016f0:	85 c0                	test   %eax,%eax
  4016f2:	75 06                	jne    4016fa <skip+0x5d>
  4016f4:	48 8b 45 f8          	mov    -0x8(%rbp),%rax
  4016f8:	eb 02                	jmp    4016fc <skip+0x5f>
  4016fa:	eb a9                	jmp    4016a5 <skip+0x8>
  4016fc:	c9                   	leaveq 
  4016fd:	c3                   	retq   

00000000004016fe <read_line>:
read_line():
  4016fe:	55                   	push   %rbp
  4016ff:	48 89 e5             	mov    %rsp,%rbp
  401702:	48 83 ec 10          	sub    $0x10,%rsp
  401706:	b8 00 00 00 00       	mov    $0x0,%eax
  40170b:	e8 8d ff ff ff       	callq  40169d <skip>
  401710:	48 89 45 f8          	mov    %rax,-0x8(%rbp)
  401714:	48 83 7d f8 00       	cmpq   $0x0,-0x8(%rbp)
  401719:	75 77                	jne    401792 <read_line+0x94>
  40171b:	48 8b 15 7e 25 20 00 	mov    0x20257e(%rip),%rdx        # 603ca0 <infile>
  401722:	48 8b 05 5f 25 20 00 	mov    0x20255f(%rip),%rax        # 603c88 <stdin@@GLIBC_2.2.5>
  401729:	48 39 c2             	cmp    %rax,%rdx
  40172c:	75 14                	jne    401742 <read_line+0x44>
  40172e:	bf 33 2a 40 00       	mov    $0x402a33,%edi
  401733:	e8 28 f4 ff ff       	callq  400b60 <puts@plt>
  401738:	bf 08 00 00 00       	mov    $0x8,%edi
  40173d:	e8 8e f5 ff ff       	callq  400cd0 <exit@plt>
  401742:	bf 51 2a 40 00       	mov    $0x402a51,%edi
  401747:	e8 e4 f3 ff ff       	callq  400b30 <getenv@plt>
  40174c:	48 85 c0             	test   %rax,%rax
  40174f:	74 0a                	je     40175b <read_line+0x5d>
  401751:	bf 00 00 00 00       	mov    $0x0,%edi
  401756:	e8 75 f5 ff ff       	callq  400cd0 <exit@plt>
  40175b:	48 8b 05 26 25 20 00 	mov    0x202526(%rip),%rax        # 603c88 <stdin@@GLIBC_2.2.5>
  401762:	48 89 05 37 25 20 00 	mov    %rax,0x202537(%rip)        # 603ca0 <infile>
  401769:	b8 00 00 00 00       	mov    $0x0,%eax
  40176e:	e8 2a ff ff ff       	callq  40169d <skip>
  401773:	48 89 45 f8          	mov    %rax,-0x8(%rbp)
  401777:	48 83 7d f8 00       	cmpq   $0x0,-0x8(%rbp)
  40177c:	75 14                	jne    401792 <read_line+0x94>
  40177e:	bf 33 2a 40 00       	mov    $0x402a33,%edi
  401783:	e8 d8 f3 ff ff       	callq  400b60 <puts@plt>
  401788:	bf 00 00 00 00       	mov    $0x0,%edi
  40178d:	e8 3e f5 ff ff       	callq  400cd0 <exit@plt>
  401792:	8b 05 04 25 20 00    	mov    0x202504(%rip),%eax        # 603c9c <num_input_strings>
  401798:	48 63 d0             	movslq %eax,%rdx
  40179b:	48 89 d0             	mov    %rdx,%rax
  40179e:	48 c1 e0 02          	shl    $0x2,%rax
  4017a2:	48 01 d0             	add    %rdx,%rax
  4017a5:	48 c1 e0 04          	shl    $0x4,%rax
  4017a9:	48 05 c0 3c 60 00    	add    $0x603cc0,%rax
  4017af:	48 89 c7             	mov    %rax,%rdi
  4017b2:	e8 c9 f3 ff ff       	callq  400b80 <strlen@plt>
  4017b7:	89 45 f4             	mov    %eax,-0xc(%rbp)
  4017ba:	83 7d f4 4e          	cmpl   $0x4e,-0xc(%rbp)
  4017be:	7e 50                	jle    401810 <read_line+0x112>
  4017c0:	bf 5c 2a 40 00       	mov    $0x402a5c,%edi
  4017c5:	e8 96 f3 ff ff       	callq  400b60 <puts@plt>
  4017ca:	8b 05 cc 24 20 00    	mov    0x2024cc(%rip),%eax        # 603c9c <num_input_strings>
  4017d0:	8d 50 01             	lea    0x1(%rax),%edx
  4017d3:	89 15 c3 24 20 00    	mov    %edx,0x2024c3(%rip)        # 603c9c <num_input_strings>
  4017d9:	48 63 d0             	movslq %eax,%rdx
  4017dc:	48 89 d0             	mov    %rdx,%rax
  4017df:	48 c1 e0 02          	shl    $0x2,%rax
  4017e3:	48 01 d0             	add    %rdx,%rax
  4017e6:	48 c1 e0 04          	shl    $0x4,%rax
  4017ea:	48 05 c0 3c 60 00    	add    $0x603cc0,%rax
  4017f0:	48 be 2a 2a 2a 74 72 	movabs $0x636e7572742a2a2a,%rsi
  4017f7:	75 6e 63 
  4017fa:	48 89 30             	mov    %rsi,(%rax)
  4017fd:	48 b9 61 74 65 64 2a 	movabs $0x2a2a2a64657461,%rcx
  401804:	2a 2a 00 
  401807:	48 89 48 08          	mov    %rcx,0x8(%rax)
  40180b:	e8 54 00 00 00       	callq  401864 <explode_bomb>
  401810:	8b 05 86 24 20 00    	mov    0x202486(%rip),%eax        # 603c9c <num_input_strings>
  401816:	8b 55 f4             	mov    -0xc(%rbp),%edx
  401819:	83 ea 01             	sub    $0x1,%edx
  40181c:	48 63 ca             	movslq %edx,%rcx
  40181f:	48 63 d0             	movslq %eax,%rdx
  401822:	48 89 d0             	mov    %rdx,%rax
  401825:	48 c1 e0 02          	shl    $0x2,%rax
  401829:	48 01 d0             	add    %rdx,%rax
  40182c:	48 c1 e0 04          	shl    $0x4,%rax
  401830:	48 01 c8             	add    %rcx,%rax
  401833:	48 05 c0 3c 60 00    	add    $0x603cc0,%rax
  401839:	c6 00 00             	movb   $0x0,(%rax)
  40183c:	8b 05 5a 24 20 00    	mov    0x20245a(%rip),%eax        # 603c9c <num_input_strings>
  401842:	8d 50 01             	lea    0x1(%rax),%edx
  401845:	89 15 51 24 20 00    	mov    %edx,0x202451(%rip)        # 603c9c <num_input_strings>
  40184b:	48 63 d0             	movslq %eax,%rdx
  40184e:	48 89 d0             	mov    %rdx,%rax
  401851:	48 c1 e0 02          	shl    $0x2,%rax
  401855:	48 01 d0             	add    %rdx,%rax
  401858:	48 c1 e0 04          	shl    $0x4,%rax
  40185c:	48 05 c0 3c 60 00    	add    $0x603cc0,%rax
  401862:	c9                   	leaveq 
  401863:	c3                   	retq   

0000000000401864 <explode_bomb>:
explode_bomb():
  401864:	55                   	push   %rbp
  401865:	48 89 e5             	mov    %rsp,%rbp
  401868:	bf 77 2a 40 00       	mov    $0x402a77,%edi
  40186d:	e8 ee f2 ff ff       	callq  400b60 <puts@plt>
  401872:	bf 80 2a 40 00       	mov    $0x402a80,%edi
  401877:	e8 e4 f2 ff ff       	callq  400b60 <puts@plt>
  40187c:	bf 08 00 00 00       	mov    $0x8,%edi
  401881:	e8 4a f4 ff ff       	callq  400cd0 <exit@plt>

0000000000401886 <phase_defused>:
phase_defused():
  401886:	55                   	push   %rbp
  401887:	48 89 e5             	mov    %rsp,%rbp
  40188a:	48 83 ec 70          	sub    $0x70,%rsp
  40188e:	8b 05 08 24 20 00    	mov    0x202408(%rip),%eax        # 603c9c <num_input_strings>
  401894:	83 f8 06             	cmp    $0x6,%eax
  401897:	75 6f                	jne    401908 <phase_defused+0x82>
  401899:	48 8d 4d a0          	lea    -0x60(%rbp),%rcx
  40189d:	48 8d 55 98          	lea    -0x68(%rbp),%rdx
  4018a1:	48 8d 45 9c          	lea    -0x64(%rbp),%rax
  4018a5:	49 89 c8             	mov    %rcx,%r8
  4018a8:	48 89 d1             	mov    %rdx,%rcx
  4018ab:	48 89 c2             	mov    %rax,%rdx
  4018ae:	be 97 2a 40 00       	mov    $0x402a97,%esi
  4018b3:	bf b0 3d 60 00       	mov    $0x603db0,%edi
  4018b8:	b8 00 00 00 00       	mov    $0x0,%eax
  4018bd:	e8 ae f3 ff ff       	callq  400c70 <__isoc99_sscanf@plt>
  4018c2:	89 45 fc             	mov    %eax,-0x4(%rbp)
  4018c5:	83 7d fc 03          	cmpl   $0x3,-0x4(%rbp)
  4018c9:	75 33                	jne    4018fe <phase_defused+0x78>
  4018cb:	48 8d 45 a0          	lea    -0x60(%rbp),%rax
  4018cf:	be a0 2a 40 00       	mov    $0x402aa0,%esi
  4018d4:	48 89 c7             	mov    %rax,%rdi
  4018d7:	e8 cd fc ff ff       	callq  4015a9 <strings_not_equal>
  4018dc:	85 c0                	test   %eax,%eax
  4018de:	75 1e                	jne    4018fe <phase_defused+0x78>
  4018e0:	bf a8 2a 40 00       	mov    $0x402aa8,%edi
  4018e5:	e8 76 f2 ff ff       	callq  400b60 <puts@plt>
  4018ea:	bf d0 2a 40 00       	mov    $0x402ad0,%edi
  4018ef:	e8 6c f2 ff ff       	callq  400b60 <puts@plt>
  4018f4:	b8 00 00 00 00       	mov    $0x0,%eax
  4018f9:	e8 28 fb ff ff       	callq  401426 <secret_phase>
  4018fe:	bf 08 2b 40 00       	mov    $0x402b08,%edi
  401903:	e8 58 f2 ff ff       	callq  400b60 <puts@plt>
  401908:	c9                   	leaveq 
  401909:	c3                   	retq   

000000000040190a <sigalrm_handler>:
sigalrm_handler():
  40190a:	55                   	push   %rbp
  40190b:	48 89 e5             	mov    %rsp,%rbp
  40190e:	48 83 ec 10          	sub    $0x10,%rsp
  401912:	89 7d fc             	mov    %edi,-0x4(%rbp)
  401915:	48 8b 05 74 23 20 00 	mov    0x202374(%rip),%rax        # 603c90 <stderr@@GLIBC_2.2.5>
  40191c:	ba 00 00 00 00       	mov    $0x0,%edx
  401921:	be 38 2b 40 00       	mov    $0x402b38,%esi
  401926:	48 89 c7             	mov    %rax,%rdi
  401929:	b8 00 00 00 00       	mov    $0x0,%eax
  40192e:	e8 fd f2 ff ff       	callq  400c30 <fprintf@plt>
  401933:	bf 01 00 00 00       	mov    $0x1,%edi
  401938:	e8 93 f3 ff ff       	callq  400cd0 <exit@plt>

000000000040193d <rio_readinitb>:
rio_readinitb():
  40193d:	55                   	push   %rbp
  40193e:	48 89 e5             	mov    %rsp,%rbp
  401941:	48 89 7d f8          	mov    %rdi,-0x8(%rbp)
  401945:	89 75 f4             	mov    %esi,-0xc(%rbp)
  401948:	48 8b 45 f8          	mov    -0x8(%rbp),%rax
  40194c:	8b 55 f4             	mov    -0xc(%rbp),%edx
  40194f:	89 10                	mov    %edx,(%rax)
  401951:	48 8b 45 f8          	mov    -0x8(%rbp),%rax
  401955:	c7 40 04 00 00 00 00 	movl   $0x0,0x4(%rax)
  40195c:	48 8b 45 f8          	mov    -0x8(%rbp),%rax
  401960:	48 8d 50 10          	lea    0x10(%rax),%rdx
  401964:	48 8b 45 f8          	mov    -0x8(%rbp),%rax
  401968:	48 89 50 08          	mov    %rdx,0x8(%rax)
  40196c:	5d                   	pop    %rbp
  40196d:	c3                   	retq   

000000000040196e <rio_read>:
rio_read():
  40196e:	55                   	push   %rbp
  40196f:	48 89 e5             	mov    %rsp,%rbp
  401972:	48 83 ec 30          	sub    $0x30,%rsp
  401976:	48 89 7d e8          	mov    %rdi,-0x18(%rbp)
  40197a:	48 89 75 e0          	mov    %rsi,-0x20(%rbp)
  40197e:	48 89 55 d8          	mov    %rdx,-0x28(%rbp)
  401982:	eb 6e                	jmp    4019f2 <rio_read+0x84>
  401984:	48 8b 45 e8          	mov    -0x18(%rbp),%rax
  401988:	48 8d 48 10          	lea    0x10(%rax),%rcx
  40198c:	48 8b 45 e8          	mov    -0x18(%rbp),%rax
  401990:	8b 00                	mov    (%rax),%eax
  401992:	ba 00 20 00 00       	mov    $0x2000,%edx
  401997:	48 89 ce             	mov    %rcx,%rsi
  40199a:	89 c7                	mov    %eax,%edi
  40199c:	e8 2f f2 ff ff       	callq  400bd0 <read@plt>
  4019a1:	89 c2                	mov    %eax,%edx
  4019a3:	48 8b 45 e8          	mov    -0x18(%rbp),%rax
  4019a7:	89 50 04             	mov    %edx,0x4(%rax)
  4019aa:	48 8b 45 e8          	mov    -0x18(%rbp),%rax
  4019ae:	8b 40 04             	mov    0x4(%rax),%eax
  4019b1:	85 c0                	test   %eax,%eax
  4019b3:	79 18                	jns    4019cd <rio_read+0x5f>
  4019b5:	e8 86 f1 ff ff       	callq  400b40 <__errno_location@plt>
  4019ba:	8b 00                	mov    (%rax),%eax
  4019bc:	83 f8 04             	cmp    $0x4,%eax
  4019bf:	74 31                	je     4019f2 <rio_read+0x84>
  4019c1:	48 c7 c0 ff ff ff ff 	mov    $0xffffffffffffffff,%rax
  4019c8:	e9 9d 00 00 00       	jmpq   401a6a <rio_read+0xfc>
  4019cd:	48 8b 45 e8          	mov    -0x18(%rbp),%rax
  4019d1:	8b 40 04             	mov    0x4(%rax),%eax
  4019d4:	85 c0                	test   %eax,%eax
  4019d6:	75 0a                	jne    4019e2 <rio_read+0x74>
  4019d8:	b8 00 00 00 00       	mov    $0x0,%eax
  4019dd:	e9 88 00 00 00       	jmpq   401a6a <rio_read+0xfc>
  4019e2:	48 8b 45 e8          	mov    -0x18(%rbp),%rax
  4019e6:	48 8d 50 10          	lea    0x10(%rax),%rdx
  4019ea:	48 8b 45 e8          	mov    -0x18(%rbp),%rax
  4019ee:	48 89 50 08          	mov    %rdx,0x8(%rax)
  4019f2:	48 8b 45 e8          	mov    -0x18(%rbp),%rax
  4019f6:	8b 40 04             	mov    0x4(%rax),%eax
  4019f9:	85 c0                	test   %eax,%eax
  4019fb:	7e 87                	jle    401984 <rio_read+0x16>
  4019fd:	48 8b 45 d8          	mov    -0x28(%rbp),%rax
  401a01:	89 45 fc             	mov    %eax,-0x4(%rbp)
  401a04:	48 8b 45 e8          	mov    -0x18(%rbp),%rax
  401a08:	8b 40 04             	mov    0x4(%rax),%eax
  401a0b:	48 98                	cltq   
  401a0d:	48 3b 45 d8          	cmp    -0x28(%rbp),%rax
  401a11:	73 0a                	jae    401a1d <rio_read+0xaf>
  401a13:	48 8b 45 e8          	mov    -0x18(%rbp),%rax
  401a17:	8b 40 04             	mov    0x4(%rax),%eax
  401a1a:	89 45 fc             	mov    %eax,-0x4(%rbp)
  401a1d:	8b 45 fc             	mov    -0x4(%rbp),%eax
  401a20:	48 63 d0             	movslq %eax,%rdx
  401a23:	48 8b 45 e8          	mov    -0x18(%rbp),%rax
  401a27:	48 8b 48 08          	mov    0x8(%rax),%rcx
  401a2b:	48 8b 45 e0          	mov    -0x20(%rbp),%rax
  401a2f:	48 89 ce             	mov    %rcx,%rsi
  401a32:	48 89 c7             	mov    %rax,%rdi
  401a35:	e8 16 f2 ff ff       	callq  400c50 <memcpy@plt>
  401a3a:	48 8b 45 e8          	mov    -0x18(%rbp),%rax
  401a3e:	48 8b 50 08          	mov    0x8(%rax),%rdx
  401a42:	8b 45 fc             	mov    -0x4(%rbp),%eax
  401a45:	48 98                	cltq   
  401a47:	48 01 c2             	add    %rax,%rdx
  401a4a:	48 8b 45 e8          	mov    -0x18(%rbp),%rax
  401a4e:	48 89 50 08          	mov    %rdx,0x8(%rax)
  401a52:	48 8b 45 e8          	mov    -0x18(%rbp),%rax
  401a56:	8b 40 04             	mov    0x4(%rax),%eax
  401a59:	2b 45 fc             	sub    -0x4(%rbp),%eax
  401a5c:	89 c2                	mov    %eax,%edx
  401a5e:	48 8b 45 e8          	mov    -0x18(%rbp),%rax
  401a62:	89 50 04             	mov    %edx,0x4(%rax)
  401a65:	8b 45 fc             	mov    -0x4(%rbp),%eax
  401a68:	48 98                	cltq   
  401a6a:	c9                   	leaveq 
  401a6b:	c3                   	retq   

0000000000401a6c <rio_readlineb>:
rio_readlineb():
  401a6c:	55                   	push   %rbp
  401a6d:	48 89 e5             	mov    %rsp,%rbp
  401a70:	48 83 ec 40          	sub    $0x40,%rsp
  401a74:	48 89 7d d8          	mov    %rdi,-0x28(%rbp)
  401a78:	48 89 75 d0          	mov    %rsi,-0x30(%rbp)
  401a7c:	48 89 55 c8          	mov    %rdx,-0x38(%rbp)
  401a80:	48 8b 45 d0          	mov    -0x30(%rbp),%rax
  401a84:	48 89 45 f0          	mov    %rax,-0x10(%rbp)
  401a88:	c7 45 fc 01 00 00 00 	movl   $0x1,-0x4(%rbp)
  401a8f:	eb 5f                	jmp    401af0 <rio_readlineb+0x84>
  401a91:	48 8d 4d eb          	lea    -0x15(%rbp),%rcx
  401a95:	48 8b 45 d8          	mov    -0x28(%rbp),%rax
  401a99:	ba 01 00 00 00       	mov    $0x1,%edx
  401a9e:	48 89 ce             	mov    %rcx,%rsi
  401aa1:	48 89 c7             	mov    %rax,%rdi
  401aa4:	e8 c5 fe ff ff       	callq  40196e <rio_read>
  401aa9:	89 45 ec             	mov    %eax,-0x14(%rbp)
  401aac:	83 7d ec 01          	cmpl   $0x1,-0x14(%rbp)
  401ab0:	75 1c                	jne    401ace <rio_readlineb+0x62>
  401ab2:	48 8b 45 f0          	mov    -0x10(%rbp),%rax
  401ab6:	48 8d 50 01          	lea    0x1(%rax),%rdx
  401aba:	48 89 55 f0          	mov    %rdx,-0x10(%rbp)
  401abe:	0f b6 55 eb          	movzbl -0x15(%rbp),%edx
  401ac2:	88 10                	mov    %dl,(%rax)
  401ac4:	0f b6 45 eb          	movzbl -0x15(%rbp),%eax
  401ac8:	3c 0a                	cmp    $0xa,%al
  401aca:	75 20                	jne    401aec <rio_readlineb+0x80>
  401acc:	eb 2d                	jmp    401afb <rio_readlineb+0x8f>
  401ace:	83 7d ec 00          	cmpl   $0x0,-0x14(%rbp)
  401ad2:	75 0f                	jne    401ae3 <rio_readlineb+0x77>
  401ad4:	83 7d fc 01          	cmpl   $0x1,-0x4(%rbp)
  401ad8:	75 07                	jne    401ae1 <rio_readlineb+0x75>
  401ada:	b8 00 00 00 00       	mov    $0x0,%eax
  401adf:	eb 26                	jmp    401b07 <rio_readlineb+0x9b>
  401ae1:	eb 18                	jmp    401afb <rio_readlineb+0x8f>
  401ae3:	48 c7 c0 ff ff ff ff 	mov    $0xffffffffffffffff,%rax
  401aea:	eb 1b                	jmp    401b07 <rio_readlineb+0x9b>
  401aec:	83 45 fc 01          	addl   $0x1,-0x4(%rbp)
  401af0:	8b 45 fc             	mov    -0x4(%rbp),%eax
  401af3:	48 98                	cltq   
  401af5:	48 3b 45 c8          	cmp    -0x38(%rbp),%rax
  401af9:	72 96                	jb     401a91 <rio_readlineb+0x25>
  401afb:	48 8b 45 f0          	mov    -0x10(%rbp),%rax
  401aff:	c6 00 00             	movb   $0x0,(%rax)
  401b02:	8b 45 fc             	mov    -0x4(%rbp),%eax
  401b05:	48 98                	cltq   
  401b07:	c9                   	leaveq 
  401b08:	c3                   	retq   

0000000000401b09 <rio_writen>:
rio_writen():
  401b09:	55                   	push   %rbp
  401b0a:	48 89 e5             	mov    %rsp,%rbp
  401b0d:	48 83 ec 40          	sub    $0x40,%rsp
  401b11:	89 7d dc             	mov    %edi,-0x24(%rbp)
  401b14:	48 89 75 d0          	mov    %rsi,-0x30(%rbp)
  401b18:	48 89 55 c8          	mov    %rdx,-0x38(%rbp)
  401b1c:	48 8b 45 c8          	mov    -0x38(%rbp),%rax
  401b20:	48 89 45 f8          	mov    %rax,-0x8(%rbp)
  401b24:	48 8b 45 d0          	mov    -0x30(%rbp),%rax
  401b28:	48 89 45 e8          	mov    %rax,-0x18(%rbp)
  401b2c:	eb 4f                	jmp    401b7d <rio_writen+0x74>
  401b2e:	48 8b 55 f8          	mov    -0x8(%rbp),%rdx
  401b32:	48 8b 4d e8          	mov    -0x18(%rbp),%rcx
  401b36:	8b 45 dc             	mov    -0x24(%rbp),%eax
  401b39:	48 89 ce             	mov    %rcx,%rsi
  401b3c:	89 c7                	mov    %eax,%edi
  401b3e:	e8 2d f0 ff ff       	callq  400b70 <write@plt>
  401b43:	48 89 45 f0          	mov    %rax,-0x10(%rbp)
  401b47:	48 83 7d f0 00       	cmpq   $0x0,-0x10(%rbp)
  401b4c:	7f 1f                	jg     401b6d <rio_writen+0x64>
  401b4e:	e8 ed ef ff ff       	callq  400b40 <__errno_location@plt>
  401b53:	8b 00                	mov    (%rax),%eax
  401b55:	83 f8 04             	cmp    $0x4,%eax
  401b58:	75 0a                	jne    401b64 <rio_writen+0x5b>
  401b5a:	48 c7 45 f0 00 00 00 	movq   $0x0,-0x10(%rbp)
  401b61:	00 
  401b62:	eb 09                	jmp    401b6d <rio_writen+0x64>
  401b64:	48 c7 c0 ff ff ff ff 	mov    $0xffffffffffffffff,%rax
  401b6b:	eb 1b                	jmp    401b88 <rio_writen+0x7f>
  401b6d:	48 8b 45 f0          	mov    -0x10(%rbp),%rax
  401b71:	48 29 45 f8          	sub    %rax,-0x8(%rbp)
  401b75:	48 8b 45 f0          	mov    -0x10(%rbp),%rax
  401b79:	48 01 45 e8          	add    %rax,-0x18(%rbp)
  401b7d:	48 83 7d f8 00       	cmpq   $0x0,-0x8(%rbp)
  401b82:	75 aa                	jne    401b2e <rio_writen+0x25>
  401b84:	48 8b 45 c8          	mov    -0x38(%rbp),%rax
  401b88:	c9                   	leaveq 
  401b89:	c3                   	retq   

0000000000401b8a <urlencode>:
urlencode():
  401b8a:	55                   	push   %rbp
  401b8b:	48 89 e5             	mov    %rsp,%rbp
  401b8e:	48 83 ec 20          	sub    $0x20,%rsp
  401b92:	48 89 7d e8          	mov    %rdi,-0x18(%rbp)
  401b96:	48 89 75 e0          	mov    %rsi,-0x20(%rbp)
  401b9a:	48 8b 45 e8          	mov    -0x18(%rbp),%rax
  401b9e:	48 89 c7             	mov    %rax,%rdi
  401ba1:	e8 da ef ff ff       	callq  400b80 <strlen@plt>
  401ba6:	89 45 fc             	mov    %eax,-0x4(%rbp)
  401ba9:	e9 2c 01 00 00       	jmpq   401cda <urlencode+0x150>
  401bae:	48 8b 45 e8          	mov    -0x18(%rbp),%rax
  401bb2:	0f b6 00             	movzbl (%rax),%eax
  401bb5:	3c 2a                	cmp    $0x2a,%al
  401bb7:	74 63                	je     401c1c <urlencode+0x92>
  401bb9:	48 8b 45 e8          	mov    -0x18(%rbp),%rax
  401bbd:	0f b6 00             	movzbl (%rax),%eax
  401bc0:	3c 2d                	cmp    $0x2d,%al
  401bc2:	74 58                	je     401c1c <urlencode+0x92>
  401bc4:	48 8b 45 e8          	mov    -0x18(%rbp),%rax
  401bc8:	0f b6 00             	movzbl (%rax),%eax
  401bcb:	3c 2e                	cmp    $0x2e,%al
  401bcd:	74 4d                	je     401c1c <urlencode+0x92>
  401bcf:	48 8b 45 e8          	mov    -0x18(%rbp),%rax
  401bd3:	0f b6 00             	movzbl (%rax),%eax
  401bd6:	3c 5f                	cmp    $0x5f,%al
  401bd8:	74 42                	je     401c1c <urlencode+0x92>
  401bda:	48 8b 45 e8          	mov    -0x18(%rbp),%rax
  401bde:	0f b6 00             	movzbl (%rax),%eax
  401be1:	3c 2f                	cmp    $0x2f,%al
  401be3:	76 0b                	jbe    401bf0 <urlencode+0x66>
  401be5:	48 8b 45 e8          	mov    -0x18(%rbp),%rax
  401be9:	0f b6 00             	movzbl (%rax),%eax
  401bec:	3c 39                	cmp    $0x39,%al
  401bee:	76 2c                	jbe    401c1c <urlencode+0x92>
  401bf0:	48 8b 45 e8          	mov    -0x18(%rbp),%rax
  401bf4:	0f b6 00             	movzbl (%rax),%eax
  401bf7:	3c 40                	cmp    $0x40,%al
  401bf9:	76 0b                	jbe    401c06 <urlencode+0x7c>
  401bfb:	48 8b 45 e8          	mov    -0x18(%rbp),%rax
  401bff:	0f b6 00             	movzbl (%rax),%eax
  401c02:	3c 5a                	cmp    $0x5a,%al
  401c04:	76 16                	jbe    401c1c <urlencode+0x92>
  401c06:	48 8b 45 e8          	mov    -0x18(%rbp),%rax
  401c0a:	0f b6 00             	movzbl (%rax),%eax
  401c0d:	3c 60                	cmp    $0x60,%al
  401c0f:	76 25                	jbe    401c36 <urlencode+0xac>
  401c11:	48 8b 45 e8          	mov    -0x18(%rbp),%rax
  401c15:	0f b6 00             	movzbl (%rax),%eax
  401c18:	3c 7a                	cmp    $0x7a,%al
  401c1a:	77 1a                	ja     401c36 <urlencode+0xac>
  401c1c:	48 8b 45 e0          	mov    -0x20(%rbp),%rax
  401c20:	48 8d 50 01          	lea    0x1(%rax),%rdx
  401c24:	48 89 55 e0          	mov    %rdx,-0x20(%rbp)
  401c28:	48 8b 55 e8          	mov    -0x18(%rbp),%rdx
  401c2c:	0f b6 12             	movzbl (%rdx),%edx
  401c2f:	88 10                	mov    %dl,(%rax)
  401c31:	e9 9f 00 00 00       	jmpq   401cd5 <urlencode+0x14b>
  401c36:	48 8b 45 e8          	mov    -0x18(%rbp),%rax
  401c3a:	0f b6 00             	movzbl (%rax),%eax
  401c3d:	3c 20                	cmp    $0x20,%al
  401c3f:	75 14                	jne    401c55 <urlencode+0xcb>
  401c41:	48 8b 45 e0          	mov    -0x20(%rbp),%rax
  401c45:	48 8d 50 01          	lea    0x1(%rax),%rdx
  401c49:	48 89 55 e0          	mov    %rdx,-0x20(%rbp)
  401c4d:	c6 00 2b             	movb   $0x2b,(%rax)
  401c50:	e9 80 00 00 00       	jmpq   401cd5 <urlencode+0x14b>
  401c55:	48 8b 45 e8          	mov    -0x18(%rbp),%rax
  401c59:	0f b6 00             	movzbl (%rax),%eax
  401c5c:	3c 1f                	cmp    $0x1f,%al
  401c5e:	76 0b                	jbe    401c6b <urlencode+0xe1>
  401c60:	48 8b 45 e8          	mov    -0x18(%rbp),%rax
  401c64:	0f b6 00             	movzbl (%rax),%eax
  401c67:	84 c0                	test   %al,%al
  401c69:	79 0b                	jns    401c76 <urlencode+0xec>
  401c6b:	48 8b 45 e8          	mov    -0x18(%rbp),%rax
  401c6f:	0f b6 00             	movzbl (%rax),%eax
  401c72:	3c 09                	cmp    $0x9,%al
  401c74:	75 58                	jne    401cce <urlencode+0x144>
  401c76:	48 8b 45 e8          	mov    -0x18(%rbp),%rax
  401c7a:	0f b6 00             	movzbl (%rax),%eax
  401c7d:	0f b6 d0             	movzbl %al,%edx
  401c80:	48 8d 45 f0          	lea    -0x10(%rbp),%rax
  401c84:	be 5c 2b 40 00       	mov    $0x402b5c,%esi
  401c89:	48 89 c7             	mov    %rax,%rdi
  401c8c:	b8 00 00 00 00       	mov    $0x0,%eax
  401c91:	e8 2a f0 ff ff       	callq  400cc0 <sprintf@plt>
  401c96:	48 8b 45 e0          	mov    -0x20(%rbp),%rax
  401c9a:	48 8d 50 01          	lea    0x1(%rax),%rdx
  401c9e:	48 89 55 e0          	mov    %rdx,-0x20(%rbp)
  401ca2:	0f b6 55 f0          	movzbl -0x10(%rbp),%edx
  401ca6:	88 10                	mov    %dl,(%rax)
  401ca8:	48 8b 45 e0          	mov    -0x20(%rbp),%rax
  401cac:	48 8d 50 01          	lea    0x1(%rax),%rdx
  401cb0:	48 89 55 e0          	mov    %rdx,-0x20(%rbp)
  401cb4:	0f b6 55 f1          	movzbl -0xf(%rbp),%edx
  401cb8:	88 10                	mov    %dl,(%rax)
  401cba:	48 8b 45 e0          	mov    -0x20(%rbp),%rax
  401cbe:	48 8d 50 01          	lea    0x1(%rax),%rdx
  401cc2:	48 89 55 e0          	mov    %rdx,-0x20(%rbp)
  401cc6:	0f b6 55 f2          	movzbl -0xe(%rbp),%edx
  401cca:	88 10                	mov    %dl,(%rax)
  401ccc:	eb 07                	jmp    401cd5 <urlencode+0x14b>
  401cce:	b8 ff ff ff ff       	mov    $0xffffffff,%eax
  401cd3:	eb 1b                	jmp    401cf0 <urlencode+0x166>
  401cd5:	48 83 45 e8 01       	addq   $0x1,-0x18(%rbp)
  401cda:	8b 45 fc             	mov    -0x4(%rbp),%eax
  401cdd:	8d 50 ff             	lea    -0x1(%rax),%edx
  401ce0:	89 55 fc             	mov    %edx,-0x4(%rbp)
  401ce3:	85 c0                	test   %eax,%eax
  401ce5:	0f 85 c3 fe ff ff    	jne    401bae <urlencode+0x24>
  401ceb:	b8 00 00 00 00       	mov    $0x0,%eax
  401cf0:	c9                   	leaveq 
  401cf1:	c3                   	retq   

0000000000401cf2 <submitr>:
submitr():
  401cf2:	55                   	push   %rbp
  401cf3:	48 89 e5             	mov    %rsp,%rbp
  401cf6:	53                   	push   %rbx
  401cf7:	48 81 ec 88 a0 00 00 	sub    $0xa088,%rsp
  401cfe:	48 89 bd 98 5f ff ff 	mov    %rdi,-0xa068(%rbp)
  401d05:	89 b5 94 5f ff ff    	mov    %esi,-0xa06c(%rbp)
  401d0b:	48 89 95 88 5f ff ff 	mov    %rdx,-0xa078(%rbp)
  401d12:	48 89 8d 80 5f ff ff 	mov    %rcx,-0xa080(%rbp)
  401d19:	4c 89 85 78 5f ff ff 	mov    %r8,-0xa088(%rbp)
  401d20:	4c 89 8d 70 5f ff ff 	mov    %r9,-0xa090(%rbp)
  401d27:	c7 85 ac 7f ff ff 00 	movl   $0x0,-0x8054(%rbp)
  401d2e:	00 00 00 
  401d31:	ba 00 00 00 00       	mov    $0x0,%edx
  401d36:	be 01 00 00 00       	mov    $0x1,%esi
  401d3b:	bf 02 00 00 00       	mov    $0x2,%edi
  401d40:	e8 cb ef ff ff       	callq  400d10 <socket@plt>
  401d45:	89 45 ec             	mov    %eax,-0x14(%rbp)
  401d48:	83 7d ec 00          	cmpl   $0x0,-0x14(%rbp)
  401d4c:	79 52                	jns    401da0 <submitr+0xae>
  401d4e:	48 8b 45 10          	mov    0x10(%rbp),%rax
  401d52:	48 bb 45 72 72 6f 72 	movabs $0x43203a726f727245,%rbx
  401d59:	3a 20 43 
  401d5c:	48 89 18             	mov    %rbx,(%rax)
  401d5f:	48 bb 6c 69 65 6e 74 	movabs $0x6e7520746e65696c,%rbx
  401d66:	20 75 6e 
  401d69:	48 89 58 08          	mov    %rbx,0x8(%rax)
  401d6d:	48 bb 61 62 6c 65 20 	movabs $0x206f7420656c6261,%rbx
  401d74:	74 6f 20 
  401d77:	48 89 58 10          	mov    %rbx,0x10(%rax)
  401d7b:	48 bb 63 72 65 61 74 	movabs $0x7320657461657263,%rbx
  401d82:	65 20 73 
  401d85:	48 89 58 18          	mov    %rbx,0x18(%rax)
  401d89:	c7 40 20 6f 63 6b 65 	movl   $0x656b636f,0x20(%rax)
  401d90:	66 c7 40 24 74 00    	movw   $0x74,0x24(%rax)
  401d96:	b8 ff ff ff ff       	mov    $0xffffffff,%eax
  401d9b:	e9 77 06 00 00       	jmpq   402417 <submitr+0x725>
  401da0:	48 8b 85 98 5f ff ff 	mov    -0xa068(%rbp),%rax
  401da7:	48 89 c7             	mov    %rax,%rdi
  401daa:	e8 71 ee ff ff       	callq  400c20 <gethostbyname@plt>
  401daf:	48 89 45 e0          	mov    %rax,-0x20(%rbp)
  401db3:	48 83 7d e0 00       	cmpq   $0x0,-0x20(%rbp)
  401db8:	75 6e                	jne    401e28 <submitr+0x136>
  401dba:	48 8b 45 10          	mov    0x10(%rbp),%rax
  401dbe:	48 bb 45 72 72 6f 72 	movabs $0x44203a726f727245,%rbx
  401dc5:	3a 20 44 
  401dc8:	48 89 18             	mov    %rbx,(%rax)
  401dcb:	48 bb 4e 53 20 69 73 	movabs $0x6e7520736920534e,%rbx
  401dd2:	20 75 6e 
  401dd5:	48 89 58 08          	mov    %rbx,0x8(%rax)
  401dd9:	48 bb 61 62 6c 65 20 	movabs $0x206f7420656c6261,%rbx
  401de0:	74 6f 20 
  401de3:	48 89 58 10          	mov    %rbx,0x10(%rax)
  401de7:	48 bb 72 65 73 6f 6c 	movabs $0x2065766c6f736572,%rbx
  401dee:	76 65 20 
  401df1:	48 89 58 18          	mov    %rbx,0x18(%rax)
  401df5:	48 bb 73 65 72 76 65 	movabs $0x6120726576726573,%rbx
  401dfc:	72 20 61 
  401dff:	48 89 58 20          	mov    %rbx,0x20(%rax)
  401e03:	c7 40 28 64 64 72 65 	movl   $0x65726464,0x28(%rax)
  401e0a:	66 c7 40 2c 73 73    	movw   $0x7373,0x2c(%rax)
  401e10:	c6 40 2e 00          	movb   $0x0,0x2e(%rax)
  401e14:	8b 45 ec             	mov    -0x14(%rbp),%eax
  401e17:	89 c7                	mov    %eax,%edi
  401e19:	e8 a2 ed ff ff       	callq  400bc0 <close@plt>
  401e1e:	b8 ff ff ff ff       	mov    $0xffffffff,%eax
  401e23:	e9 ef 05 00 00       	jmpq   402417 <submitr+0x725>
  401e28:	48 8d 45 c0          	lea    -0x40(%rbp),%rax
  401e2c:	be 10 00 00 00       	mov    $0x10,%esi
  401e31:	48 89 c7             	mov    %rax,%rdi
  401e34:	e8 67 ee ff ff       	callq  400ca0 <bzero@plt>
  401e39:	66 c7 45 c0 02 00    	movw   $0x2,-0x40(%rbp)
  401e3f:	48 8b 45 e0          	mov    -0x20(%rbp),%rax
  401e43:	8b 40 14             	mov    0x14(%rax),%eax
  401e46:	48 63 d0             	movslq %eax,%rdx
  401e49:	48 8b 45 e0          	mov    -0x20(%rbp),%rax
  401e4d:	48 8b 40 18          	mov    0x18(%rax),%rax
  401e51:	48 8b 00             	mov    (%rax),%rax
  401e54:	48 8d 4d c0          	lea    -0x40(%rbp),%rcx
  401e58:	48 83 c1 04          	add    $0x4,%rcx
  401e5c:	48 89 ce             	mov    %rcx,%rsi
  401e5f:	48 89 c7             	mov    %rax,%rdi
  401e62:	e8 19 ee ff ff       	callq  400c80 <bcopy@plt>
  401e67:	8b 85 94 5f ff ff    	mov    -0xa06c(%rbp),%eax
  401e6d:	0f b7 c0             	movzwl %ax,%eax
  401e70:	89 c7                	mov    %eax,%edi
  401e72:	e8 19 ed ff ff       	callq  400b90 <htons@plt>
  401e77:	66 89 45 c2          	mov    %ax,-0x3e(%rbp)
  401e7b:	48 8d 4d c0          	lea    -0x40(%rbp),%rcx
  401e7f:	8b 45 ec             	mov    -0x14(%rbp),%eax
  401e82:	ba 10 00 00 00       	mov    $0x10,%edx
  401e87:	48 89 ce             	mov    %rcx,%rsi
  401e8a:	89 c7                	mov    %eax,%edi
  401e8c:	e8 4f ee ff ff       	callq  400ce0 <connect@plt>
  401e91:	85 c0                	test   %eax,%eax
  401e93:	79 60                	jns    401ef5 <submitr+0x203>
  401e95:	48 8b 45 10          	mov    0x10(%rbp),%rax
  401e99:	48 be 45 72 72 6f 72 	movabs $0x55203a726f727245,%rsi
  401ea0:	3a 20 55 
  401ea3:	48 89 30             	mov    %rsi,(%rax)
  401ea6:	48 bb 6e 61 62 6c 65 	movabs $0x6f7420656c62616e,%rbx
  401ead:	20 74 6f 
  401eb0:	48 89 58 08          	mov    %rbx,0x8(%rax)
  401eb4:	48 b9 20 63 6f 6e 6e 	movabs $0x7463656e6e6f6320,%rcx
  401ebb:	65 63 74 
  401ebe:	48 89 48 10          	mov    %rcx,0x10(%rax)
  401ec2:	48 be 20 74 6f 20 74 	movabs $0x20656874206f7420,%rsi
  401ec9:	68 65 20 
  401ecc:	48 89 70 18          	mov    %rsi,0x18(%rax)
  401ed0:	c7 40 20 73 65 72 76 	movl   $0x76726573,0x20(%rax)
  401ed7:	66 c7 40 24 65 72    	movw   $0x7265,0x24(%rax)
  401edd:	c6 40 26 00          	movb   $0x0,0x26(%rax)
  401ee1:	8b 45 ec             	mov    -0x14(%rbp),%eax
  401ee4:	89 c7                	mov    %eax,%edi
  401ee6:	e8 d5 ec ff ff       	callq  400bc0 <close@plt>
  401eeb:	b8 ff ff ff ff       	mov    $0xffffffff,%eax
  401ef0:	e9 22 05 00 00       	jmpq   402417 <submitr+0x725>
  401ef5:	48 8b 85 70 5f ff ff 	mov    -0xa090(%rbp),%rax
  401efc:	48 89 c7             	mov    %rax,%rdi
  401eff:	e8 7c ec ff ff       	callq  400b80 <strlen@plt>
  401f04:	48 89 45 d8          	mov    %rax,-0x28(%rbp)
  401f08:	48 8b 85 88 5f ff ff 	mov    -0xa078(%rbp),%rax
  401f0f:	48 89 c7             	mov    %rax,%rdi
  401f12:	e8 69 ec ff ff       	callq  400b80 <strlen@plt>
  401f17:	48 89 c3             	mov    %rax,%rbx
  401f1a:	48 8b 85 80 5f ff ff 	mov    -0xa080(%rbp),%rax
  401f21:	48 89 c7             	mov    %rax,%rdi
  401f24:	e8 57 ec ff ff       	callq  400b80 <strlen@plt>
  401f29:	48 01 c3             	add    %rax,%rbx
  401f2c:	48 8b 85 78 5f ff ff 	mov    -0xa088(%rbp),%rax
  401f33:	48 89 c7             	mov    %rax,%rdi
  401f36:	e8 45 ec ff ff       	callq  400b80 <strlen@plt>
  401f3b:	48 8d 0c 03          	lea    (%rbx,%rax,1),%rcx
  401f3f:	48 8b 55 d8          	mov    -0x28(%rbp),%rdx
  401f43:	48 89 d0             	mov    %rdx,%rax
  401f46:	48 01 c0             	add    %rax,%rax
  401f49:	48 01 d0             	add    %rdx,%rax
  401f4c:	48 01 c8             	add    %rcx,%rax
  401f4f:	48 83 e8 80          	sub    $0xffffffffffffff80,%rax
  401f53:	48 89 45 d0          	mov    %rax,-0x30(%rbp)
  401f57:	48 81 7d d0 00 20 00 	cmpq   $0x2000,-0x30(%rbp)
  401f5e:	00 
  401f5f:	76 79                	jbe    401fda <submitr+0x2e8>
  401f61:	48 8b 45 10          	mov    0x10(%rbp),%rax
  401f65:	48 bb 45 72 72 6f 72 	movabs $0x52203a726f727245,%rbx
  401f6c:	3a 20 52 
  401f6f:	48 89 18             	mov    %rbx,(%rax)
  401f72:	48 b9 65 73 75 6c 74 	movabs $0x747320746c757365,%rcx
  401f79:	20 73 74 
  401f7c:	48 89 48 08          	mov    %rcx,0x8(%rax)
  401f80:	48 be 72 69 6e 67 20 	movabs $0x6f6f7420676e6972,%rsi
  401f87:	74 6f 6f 
  401f8a:	48 89 70 10          	mov    %rsi,0x10(%rax)
  401f8e:	48 bb 20 6c 61 72 67 	movabs $0x202e656772616c20,%rbx
  401f95:	65 2e 20 
  401f98:	48 89 58 18          	mov    %rbx,0x18(%rax)
  401f9c:	48 ba 49 6e 63 72 65 	movabs $0x6573616572636e49,%rdx
  401fa3:	61 73 65 
  401fa6:	48 89 50 20          	mov    %rdx,0x20(%rax)
  401faa:	48 b9 20 53 55 42 4d 	movabs $0x5254494d42555320,%rcx
  401fb1:	49 54 52 
  401fb4:	48 89 48 28          	mov    %rcx,0x28(%rax)
  401fb8:	48 be 5f 4d 41 58 42 	movabs $0x46554258414d5f,%rsi
  401fbf:	55 46 00 
  401fc2:	48 89 70 30          	mov    %rsi,0x30(%rax)
  401fc6:	8b 45 ec             	mov    -0x14(%rbp),%eax
  401fc9:	89 c7                	mov    %eax,%edi
  401fcb:	e8 f0 eb ff ff       	callq  400bc0 <close@plt>
  401fd0:	b8 ff ff ff ff       	mov    $0xffffffff,%eax
  401fd5:	e9 3d 04 00 00       	jmpq   402417 <submitr+0x725>
  401fda:	48 8d 85 b0 9f ff ff 	lea    -0x6050(%rbp),%rax
  401fe1:	be 00 20 00 00       	mov    $0x2000,%esi
  401fe6:	48 89 c7             	mov    %rax,%rdi
  401fe9:	e8 b2 ec ff ff       	callq  400ca0 <bzero@plt>
  401fee:	48 8d 95 b0 9f ff ff 	lea    -0x6050(%rbp),%rdx
  401ff5:	48 8b 85 70 5f ff ff 	mov    -0xa090(%rbp),%rax
  401ffc:	48 89 d6             	mov    %rdx,%rsi
  401fff:	48 89 c7             	mov    %rax,%rdi
  402002:	e8 83 fb ff ff       	callq  401b8a <urlencode>
  402007:	85 c0                	test   %eax,%eax
  402009:	0f 89 91 00 00 00    	jns    4020a0 <submitr+0x3ae>
  40200f:	48 8b 45 10          	mov    0x10(%rbp),%rax
  402013:	48 bb 45 72 72 6f 72 	movabs $0x52203a726f727245,%rbx
  40201a:	3a 20 52 
  40201d:	48 89 18             	mov    %rbx,(%rax)
  402020:	48 ba 65 73 75 6c 74 	movabs $0x747320746c757365,%rdx
  402027:	20 73 74 
  40202a:	48 89 50 08          	mov    %rdx,0x8(%rax)
  40202e:	48 b9 72 69 6e 67 20 	movabs $0x6e6f6320676e6972,%rcx
  402035:	63 6f 6e 
  402038:	48 89 48 10          	mov    %rcx,0x10(%rax)
  40203c:	48 be 74 61 69 6e 73 	movabs $0x6e6120736e696174,%rsi
  402043:	20 61 6e 
  402046:	48 89 70 18          	mov    %rsi,0x18(%rax)
  40204a:	48 bb 20 69 6c 6c 65 	movabs $0x6c6167656c6c6920,%rbx
  402051:	67 61 6c 
  402054:	48 89 58 20          	mov    %rbx,0x20(%rax)
  402058:	48 ba 20 6f 72 20 75 	movabs $0x72706e7520726f20,%rdx
  40205f:	6e 70 72 
  402062:	48 89 50 28          	mov    %rdx,0x28(%rax)
  402066:	48 b9 69 6e 74 61 62 	movabs $0x20656c6261746e69,%rcx
  40206d:	6c 65 20 
  402070:	48 89 48 30          	mov    %rcx,0x30(%rax)
  402074:	48 be 63 68 61 72 61 	movabs $0x6574636172616863,%rsi
  40207b:	63 74 65 
  40207e:	48 89 70 38          	mov    %rsi,0x38(%rax)
  402082:	66 c7 40 40 72 2e    	movw   $0x2e72,0x40(%rax)
  402088:	c6 40 42 00          	movb   $0x0,0x42(%rax)
  40208c:	8b 45 ec             	mov    -0x14(%rbp),%eax
  40208f:	89 c7                	mov    %eax,%edi
  402091:	e8 2a eb ff ff       	callq  400bc0 <close@plt>
  402096:	b8 ff ff ff ff       	mov    $0xffffffff,%eax
  40209b:	e9 77 03 00 00       	jmpq   402417 <submitr+0x725>
  4020a0:	48 8d bd b0 9f ff ff 	lea    -0x6050(%rbp),%rdi
  4020a7:	48 8b b5 78 5f ff ff 	mov    -0xa088(%rbp),%rsi
  4020ae:	48 8b 8d 80 5f ff ff 	mov    -0xa080(%rbp),%rcx
  4020b5:	48 8b 95 88 5f ff ff 	mov    -0xa078(%rbp),%rdx
  4020bc:	48 8d 85 b0 bf ff ff 	lea    -0x4050(%rbp),%rax
  4020c3:	49 89 f9             	mov    %rdi,%r9
  4020c6:	49 89 f0             	mov    %rsi,%r8
  4020c9:	be 68 2b 40 00       	mov    $0x402b68,%esi
  4020ce:	48 89 c7             	mov    %rax,%rdi
  4020d1:	b8 00 00 00 00       	mov    $0x0,%eax
  4020d6:	e8 e5 eb ff ff       	callq  400cc0 <sprintf@plt>
  4020db:	48 8d 85 b0 bf ff ff 	lea    -0x4050(%rbp),%rax
  4020e2:	48 89 c7             	mov    %rax,%rdi
  4020e5:	e8 96 ea ff ff       	callq  400b80 <strlen@plt>
  4020ea:	48 89 c2             	mov    %rax,%rdx
  4020ed:	48 8d 8d b0 bf ff ff 	lea    -0x4050(%rbp),%rcx
  4020f4:	8b 45 ec             	mov    -0x14(%rbp),%eax
  4020f7:	48 89 ce             	mov    %rcx,%rsi
  4020fa:	89 c7                	mov    %eax,%edi
  4020fc:	e8 08 fa ff ff       	callq  401b09 <rio_writen>
  402101:	48 85 c0             	test   %rax,%rax
  402104:	79 64                	jns    40216a <submitr+0x478>
  402106:	48 8b 45 10          	mov    0x10(%rbp),%rax
  40210a:	48 bb 45 72 72 6f 72 	movabs $0x43203a726f727245,%rbx
  402111:	3a 20 43 
  402114:	48 89 18             	mov    %rbx,(%rax)
  402117:	48 ba 6c 69 65 6e 74 	movabs $0x6e7520746e65696c,%rdx
  40211e:	20 75 6e 
  402121:	48 89 50 08          	mov    %rdx,0x8(%rax)
  402125:	48 b9 61 62 6c 65 20 	movabs $0x206f7420656c6261,%rcx
  40212c:	74 6f 20 
  40212f:	48 89 48 10          	mov    %rcx,0x10(%rax)
  402133:	48 be 77 72 69 74 65 	movabs $0x6f74206574697277,%rsi
  40213a:	20 74 6f 
  40213d:	48 89 70 18          	mov    %rsi,0x18(%rax)
  402141:	48 bb 20 74 68 65 20 	movabs $0x7265732065687420,%rbx
  402148:	73 65 72 
  40214b:	48 89 58 20          	mov    %rbx,0x20(%rax)
  40214f:	c7 40 28 76 65 72 00 	movl   $0x726576,0x28(%rax)
  402156:	8b 45 ec             	mov    -0x14(%rbp),%eax
  402159:	89 c7                	mov    %eax,%edi
  40215b:	e8 60 ea ff ff       	callq  400bc0 <close@plt>
  402160:	b8 ff ff ff ff       	mov    $0xffffffff,%eax
  402165:	e9 ad 02 00 00       	jmpq   402417 <submitr+0x725>
  40216a:	8b 55 ec             	mov    -0x14(%rbp),%edx
  40216d:	48 8d 85 b0 df ff ff 	lea    -0x2050(%rbp),%rax
  402174:	89 d6                	mov    %edx,%esi
  402176:	48 89 c7             	mov    %rax,%rdi
  402179:	e8 bf f7 ff ff       	callq  40193d <rio_readinitb>
  40217e:	48 8d 8d b0 bf ff ff 	lea    -0x4050(%rbp),%rcx
  402185:	48 8d 85 b0 df ff ff 	lea    -0x2050(%rbp),%rax
  40218c:	ba 00 20 00 00       	mov    $0x2000,%edx
  402191:	48 89 ce             	mov    %rcx,%rsi
  402194:	48 89 c7             	mov    %rax,%rdi
  402197:	e8 d0 f8 ff ff       	callq  401a6c <rio_readlineb>
  40219c:	48 85 c0             	test   %rax,%rax
  40219f:	7f 78                	jg     402219 <submitr+0x527>
  4021a1:	48 8b 45 10          	mov    0x10(%rbp),%rax
  4021a5:	48 ba 45 72 72 6f 72 	movabs $0x43203a726f727245,%rdx
  4021ac:	3a 20 43 
  4021af:	48 89 10             	mov    %rdx,(%rax)
  4021b2:	48 b9 6c 69 65 6e 74 	movabs $0x6e7520746e65696c,%rcx
  4021b9:	20 75 6e 
  4021bc:	48 89 48 08          	mov    %rcx,0x8(%rax)
  4021c0:	48 be 61 62 6c 65 20 	movabs $0x206f7420656c6261,%rsi
  4021c7:	74 6f 20 
  4021ca:	48 89 70 10          	mov    %rsi,0x10(%rax)
  4021ce:	48 bb 72 65 61 64 20 	movabs $0x7269662064616572,%rbx
  4021d5:	66 69 72 
  4021d8:	48 89 58 18          	mov    %rbx,0x18(%rax)
  4021dc:	48 bf 73 74 20 68 65 	movabs $0x6564616568207473,%rdi
  4021e3:	61 64 65 
  4021e6:	48 89 78 20          	mov    %rdi,0x20(%rax)
  4021ea:	48 ba 72 20 66 72 6f 	movabs $0x73206d6f72662072,%rdx
  4021f1:	6d 20 73 
  4021f4:	48 89 50 28          	mov    %rdx,0x28(%rax)
  4021f8:	c7 40 30 65 72 76 65 	movl   $0x65767265,0x30(%rax)
  4021ff:	66 c7 40 34 72 00    	movw   $0x72,0x34(%rax)
  402205:	8b 45 ec             	mov    -0x14(%rbp),%eax
  402208:	89 c7                	mov    %eax,%edi
  40220a:	e8 b1 e9 ff ff       	callq  400bc0 <close@plt>
  40220f:	b8 ff ff ff ff       	mov    $0xffffffff,%eax
  402214:	e9 fe 01 00 00       	jmpq   402417 <submitr+0x725>
  402219:	48 8d b5 a0 5f ff ff 	lea    -0xa060(%rbp),%rsi
  402220:	48 8d 8d ac 7f ff ff 	lea    -0x8054(%rbp),%rcx
  402227:	48 8d 95 b0 7f ff ff 	lea    -0x8050(%rbp),%rdx
  40222e:	48 8d 85 b0 bf ff ff 	lea    -0x4050(%rbp),%rax
  402235:	49 89 f0             	mov    %rsi,%r8
  402238:	be b2 2b 40 00       	mov    $0x402bb2,%esi
  40223d:	48 89 c7             	mov    %rax,%rdi
  402240:	b8 00 00 00 00       	mov    $0x0,%eax
  402245:	e8 26 ea ff ff       	callq  400c70 <__isoc99_sscanf@plt>
  40224a:	8b 85 ac 7f ff ff    	mov    -0x8054(%rbp),%eax
  402250:	3d c8 00 00 00       	cmp    $0xc8,%eax
  402255:	74 39                	je     402290 <submitr+0x59e>
  402257:	8b 85 ac 7f ff ff    	mov    -0x8054(%rbp),%eax
  40225d:	48 8d 95 a0 5f ff ff 	lea    -0xa060(%rbp),%rdx
  402264:	48 89 d1             	mov    %rdx,%rcx
  402267:	89 c2                	mov    %eax,%edx
  402269:	be c8 2b 40 00       	mov    $0x402bc8,%esi
  40226e:	48 8b 7d 10          	mov    0x10(%rbp),%rdi
  402272:	b8 00 00 00 00       	mov    $0x0,%eax
  402277:	e8 44 ea ff ff       	callq  400cc0 <sprintf@plt>
  40227c:	8b 45 ec             	mov    -0x14(%rbp),%eax
  40227f:	89 c7                	mov    %eax,%edi
  402281:	e8 3a e9 ff ff       	callq  400bc0 <close@plt>
  402286:	b8 ff ff ff ff       	mov    $0xffffffff,%eax
  40228b:	e9 87 01 00 00       	jmpq   402417 <submitr+0x725>
  402290:	e9 92 00 00 00       	jmpq   402327 <submitr+0x635>
  402295:	48 8d 8d b0 bf ff ff 	lea    -0x4050(%rbp),%rcx
  40229c:	48 8d 85 b0 df ff ff 	lea    -0x2050(%rbp),%rax
  4022a3:	ba 00 20 00 00       	mov    $0x2000,%edx
  4022a8:	48 89 ce             	mov    %rcx,%rsi
  4022ab:	48 89 c7             	mov    %rax,%rdi
  4022ae:	e8 b9 f7 ff ff       	callq  401a6c <rio_readlineb>
  4022b3:	48 85 c0             	test   %rax,%rax
  4022b6:	7f 6f                	jg     402327 <submitr+0x635>
  4022b8:	48 8b 45 10          	mov    0x10(%rbp),%rax
  4022bc:	48 b9 45 72 72 6f 72 	movabs $0x43203a726f727245,%rcx
  4022c3:	3a 20 43 
  4022c6:	48 89 08             	mov    %rcx,(%rax)
  4022c9:	48 be 6c 69 65 6e 74 	movabs $0x6e7520746e65696c,%rsi
  4022d0:	20 75 6e 
  4022d3:	48 89 70 08          	mov    %rsi,0x8(%rax)
  4022d7:	48 bb 61 62 6c 65 20 	movabs $0x206f7420656c6261,%rbx
  4022de:	74 6f 20 
  4022e1:	48 89 58 10          	mov    %rbx,0x10(%rax)
  4022e5:	48 bf 72 65 61 64 20 	movabs $0x6165682064616572,%rdi
  4022ec:	68 65 61 
  4022ef:	48 89 78 18          	mov    %rdi,0x18(%rax)
  4022f3:	48 ba 64 65 72 73 20 	movabs $0x6f72662073726564,%rdx
  4022fa:	66 72 6f 
  4022fd:	48 89 50 20          	mov    %rdx,0x20(%rax)
  402301:	48 b9 6d 20 73 65 72 	movabs $0x726576726573206d,%rcx
  402308:	76 65 72 
  40230b:	48 89 48 28          	mov    %rcx,0x28(%rax)
  40230f:	c6 40 30 00          	movb   $0x0,0x30(%rax)
  402313:	8b 45 ec             	mov    -0x14(%rbp),%eax
  402316:	89 c7                	mov    %eax,%edi
  402318:	e8 a3 e8 ff ff       	callq  400bc0 <close@plt>
  40231d:	b8 ff ff ff ff       	mov    $0xffffffff,%eax
  402322:	e9 f0 00 00 00       	jmpq   402417 <submitr+0x725>
  402327:	48 8d 85 b0 bf ff ff 	lea    -0x4050(%rbp),%rax
  40232e:	be f5 2b 40 00       	mov    $0x402bf5,%esi
  402333:	48 89 c7             	mov    %rax,%rdi
  402336:	e8 c5 e8 ff ff       	callq  400c00 <strcmp@plt>
  40233b:	85 c0                	test   %eax,%eax
  40233d:	0f 85 52 ff ff ff    	jne    402295 <submitr+0x5a3>
  402343:	48 8d 8d b0 bf ff ff 	lea    -0x4050(%rbp),%rcx
  40234a:	48 8d 85 b0 df ff ff 	lea    -0x2050(%rbp),%rax
  402351:	ba 00 20 00 00       	mov    $0x2000,%edx
  402356:	48 89 ce             	mov    %rcx,%rsi
  402359:	48 89 c7             	mov    %rax,%rdi
  40235c:	e8 0b f7 ff ff       	callq  401a6c <rio_readlineb>
  402361:	48 85 c0             	test   %rax,%rax
  402364:	7f 76                	jg     4023dc <submitr+0x6ea>
  402366:	48 8b 45 10          	mov    0x10(%rbp),%rax
  40236a:	48 be 45 72 72 6f 72 	movabs $0x43203a726f727245,%rsi
  402371:	3a 20 43 
  402374:	48 89 30             	mov    %rsi,(%rax)
  402377:	48 bb 6c 69 65 6e 74 	movabs $0x6e7520746e65696c,%rbx
  40237e:	20 75 6e 
  402381:	48 89 58 08          	mov    %rbx,0x8(%rax)
  402385:	48 bf 61 62 6c 65 20 	movabs $0x206f7420656c6261,%rdi
  40238c:	74 6f 20 
  40238f:	48 89 78 10          	mov    %rdi,0x10(%rax)
  402393:	48 ba 72 65 61 64 20 	movabs $0x6174732064616572,%rdx
  40239a:	73 74 61 
  40239d:	48 89 50 18          	mov    %rdx,0x18(%rax)
  4023a1:	48 b9 74 75 73 20 6d 	movabs $0x7373656d20737574,%rcx
  4023a8:	65 73 73 
  4023ab:	48 89 48 20          	mov    %rcx,0x20(%rax)
  4023af:	48 be 61 67 65 20 66 	movabs $0x6d6f726620656761,%rsi
  4023b6:	72 6f 6d 
  4023b9:	48 89 70 28          	mov    %rsi,0x28(%rax)
  4023bd:	48 bb 20 73 65 72 76 	movabs $0x72657672657320,%rbx
  4023c4:	65 72 00 
  4023c7:	48 89 58 30          	mov    %rbx,0x30(%rax)
  4023cb:	8b 45 ec             	mov    -0x14(%rbp),%eax
  4023ce:	89 c7                	mov    %eax,%edi
  4023d0:	e8 eb e7 ff ff       	callq  400bc0 <close@plt>
  4023d5:	b8 ff ff ff ff       	mov    $0xffffffff,%eax
  4023da:	eb 3b                	jmp    402417 <submitr+0x725>
  4023dc:	48 8d 85 b0 bf ff ff 	lea    -0x4050(%rbp),%rax
  4023e3:	48 89 c6             	mov    %rax,%rsi
  4023e6:	48 8b 7d 10          	mov    0x10(%rbp),%rdi
  4023ea:	e8 61 e7 ff ff       	callq  400b50 <strcpy@plt>
  4023ef:	8b 45 ec             	mov    -0x14(%rbp),%eax
  4023f2:	89 c7                	mov    %eax,%edi
  4023f4:	e8 c7 e7 ff ff       	callq  400bc0 <close@plt>
  4023f9:	be f8 2b 40 00       	mov    $0x402bf8,%esi
  4023fe:	48 8b 7d 10          	mov    0x10(%rbp),%rdi
  402402:	e8 f9 e7 ff ff       	callq  400c00 <strcmp@plt>
  402407:	85 c0                	test   %eax,%eax
  402409:	75 07                	jne    402412 <submitr+0x720>
  40240b:	b8 00 00 00 00       	mov    $0x0,%eax
  402410:	eb 05                	jmp    402417 <submitr+0x725>
  402412:	b8 ff ff ff ff       	mov    $0xffffffff,%eax
  402417:	48 81 c4 88 a0 00 00 	add    $0xa088,%rsp
  40241e:	5b                   	pop    %rbx
  40241f:	5d                   	pop    %rbp
  402420:	c3                   	retq   

0000000000402421 <init_timeout>:
init_timeout():
  402421:	55                   	push   %rbp
  402422:	48 89 e5             	mov    %rsp,%rbp
  402425:	48 83 ec 10          	sub    $0x10,%rsp
  402429:	89 7d fc             	mov    %edi,-0x4(%rbp)
  40242c:	83 7d fc 00          	cmpl   $0x0,-0x4(%rbp)
  402430:	75 02                	jne    402434 <init_timeout+0x13>
  402432:	eb 26                	jmp    40245a <init_timeout+0x39>
  402434:	83 7d fc 00          	cmpl   $0x0,-0x4(%rbp)
  402438:	79 07                	jns    402441 <init_timeout+0x20>
  40243a:	c7 45 fc 00 00 00 00 	movl   $0x0,-0x4(%rbp)
  402441:	be 0a 19 40 00       	mov    $0x40190a,%esi
  402446:	bf 0e 00 00 00       	mov    $0xe,%edi
  40244b:	e8 c0 e7 ff ff       	callq  400c10 <signal@plt>
  402450:	8b 45 fc             	mov    -0x4(%rbp),%eax
  402453:	89 c7                	mov    %eax,%edi
  402455:	e8 56 e7 ff ff       	callq  400bb0 <alarm@plt>
  40245a:	c9                   	leaveq 
  40245b:	c3                   	retq   

000000000040245c <init_driver>:
init_driver():
  40245c:	55                   	push   %rbp
  40245d:	48 89 e5             	mov    %rsp,%rbp
  402460:	48 83 ec 40          	sub    $0x40,%rsp
  402464:	48 89 7d c8          	mov    %rdi,-0x38(%rbp)
  402468:	48 c7 45 f8 fb 2b 40 	movq   $0x402bfb,-0x8(%rbp)
  40246f:	00 
  402470:	c7 45 f4 6e 3b 00 00 	movl   $0x3b6e,-0xc(%rbp)
  402477:	be 01 00 00 00       	mov    $0x1,%esi
  40247c:	bf 0d 00 00 00       	mov    $0xd,%edi
  402481:	e8 8a e7 ff ff       	callq  400c10 <signal@plt>
  402486:	be 01 00 00 00       	mov    $0x1,%esi
  40248b:	bf 1d 00 00 00       	mov    $0x1d,%edi
  402490:	e8 7b e7 ff ff       	callq  400c10 <signal@plt>
  402495:	be 01 00 00 00       	mov    $0x1,%esi
  40249a:	bf 1d 00 00 00       	mov    $0x1d,%edi
  40249f:	e8 6c e7 ff ff       	callq  400c10 <signal@plt>
  4024a4:	ba 00 00 00 00       	mov    $0x0,%edx
  4024a9:	be 01 00 00 00       	mov    $0x1,%esi
  4024ae:	bf 02 00 00 00       	mov    $0x2,%edi
  4024b3:	e8 58 e8 ff ff       	callq  400d10 <socket@plt>
  4024b8:	89 45 f0             	mov    %eax,-0x10(%rbp)
  4024bb:	83 7d f0 00          	cmpl   $0x0,-0x10(%rbp)
  4024bf:	79 52                	jns    402513 <init_driver+0xb7>
  4024c1:	48 8b 45 c8          	mov    -0x38(%rbp),%rax
  4024c5:	48 b9 45 72 72 6f 72 	movabs $0x43203a726f727245,%rcx
  4024cc:	3a 20 43 
  4024cf:	48 89 08             	mov    %rcx,(%rax)
  4024d2:	48 ba 6c 69 65 6e 74 	movabs $0x6e7520746e65696c,%rdx
  4024d9:	20 75 6e 
  4024dc:	48 89 50 08          	mov    %rdx,0x8(%rax)
  4024e0:	48 b9 61 62 6c 65 20 	movabs $0x206f7420656c6261,%rcx
  4024e7:	74 6f 20 
  4024ea:	48 89 48 10          	mov    %rcx,0x10(%rax)
  4024ee:	48 be 63 72 65 61 74 	movabs $0x7320657461657263,%rsi
  4024f5:	65 20 73 
  4024f8:	48 89 70 18          	mov    %rsi,0x18(%rax)
  4024fc:	c7 40 20 6f 63 6b 65 	movl   $0x656b636f,0x20(%rax)
  402503:	66 c7 40 24 74 00    	movw   $0x74,0x24(%rax)
  402509:	b8 ff ff ff ff       	mov    $0xffffffff,%eax
  40250e:	e9 36 01 00 00       	jmpq   402649 <init_driver+0x1ed>
  402513:	48 8b 45 f8          	mov    -0x8(%rbp),%rax
  402517:	48 89 c7             	mov    %rax,%rdi
  40251a:	e8 01 e7 ff ff       	callq  400c20 <gethostbyname@plt>
  40251f:	48 89 45 e8          	mov    %rax,-0x18(%rbp)
  402523:	48 83 7d e8 00       	cmpq   $0x0,-0x18(%rbp)
  402528:	75 6e                	jne    402598 <init_driver+0x13c>
  40252a:	48 8b 45 c8          	mov    -0x38(%rbp),%rax
  40252e:	48 ba 45 72 72 6f 72 	movabs $0x44203a726f727245,%rdx
  402535:	3a 20 44 
  402538:	48 89 10             	mov    %rdx,(%rax)
  40253b:	48 b9 4e 53 20 69 73 	movabs $0x6e7520736920534e,%rcx
  402542:	20 75 6e 
  402545:	48 89 48 08          	mov    %rcx,0x8(%rax)
  402549:	48 be 61 62 6c 65 20 	movabs $0x206f7420656c6261,%rsi
  402550:	74 6f 20 
  402553:	48 89 70 10          	mov    %rsi,0x10(%rax)
  402557:	48 ba 72 65 73 6f 6c 	movabs $0x2065766c6f736572,%rdx
  40255e:	76 65 20 
  402561:	48 89 50 18          	mov    %rdx,0x18(%rax)
  402565:	48 b9 73 65 72 76 65 	movabs $0x6120726576726573,%rcx
  40256c:	72 20 61 
  40256f:	48 89 48 20          	mov    %rcx,0x20(%rax)
  402573:	c7 40 28 64 64 72 65 	movl   $0x65726464,0x28(%rax)
  40257a:	66 c7 40 2c 73 73    	movw   $0x7373,0x2c(%rax)
  402580:	c6 40 2e 00          	movb   $0x0,0x2e(%rax)
  402584:	8b 45 f0             	mov    -0x10(%rbp),%eax
  402587:	89 c7                	mov    %eax,%edi
  402589:	e8 32 e6 ff ff       	callq  400bc0 <close@plt>
  40258e:	b8 ff ff ff ff       	mov    $0xffffffff,%eax
  402593:	e9 b1 00 00 00       	jmpq   402649 <init_driver+0x1ed>
  402598:	48 8d 45 d0          	lea    -0x30(%rbp),%rax
  40259c:	be 10 00 00 00       	mov    $0x10,%esi
  4025a1:	48 89 c7             	mov    %rax,%rdi
  4025a4:	e8 f7 e6 ff ff       	callq  400ca0 <bzero@plt>
  4025a9:	66 c7 45 d0 02 00    	movw   $0x2,-0x30(%rbp)
  4025af:	48 8b 45 e8          	mov    -0x18(%rbp),%rax
  4025b3:	8b 40 14             	mov    0x14(%rax),%eax
  4025b6:	48 63 d0             	movslq %eax,%rdx
  4025b9:	48 8b 45 e8          	mov    -0x18(%rbp),%rax
  4025bd:	48 8b 40 18          	mov    0x18(%rax),%rax
  4025c1:	48 8b 00             	mov    (%rax),%rax
  4025c4:	48 8d 4d d0          	lea    -0x30(%rbp),%rcx
  4025c8:	48 83 c1 04          	add    $0x4,%rcx
  4025cc:	48 89 ce             	mov    %rcx,%rsi
  4025cf:	48 89 c7             	mov    %rax,%rdi
  4025d2:	e8 a9 e6 ff ff       	callq  400c80 <bcopy@plt>
  4025d7:	8b 45 f4             	mov    -0xc(%rbp),%eax
  4025da:	0f b7 c0             	movzwl %ax,%eax
  4025dd:	89 c7                	mov    %eax,%edi
  4025df:	e8 ac e5 ff ff       	callq  400b90 <htons@plt>
  4025e4:	66 89 45 d2          	mov    %ax,-0x2e(%rbp)
  4025e8:	48 8d 4d d0          	lea    -0x30(%rbp),%rcx
  4025ec:	8b 45 f0             	mov    -0x10(%rbp),%eax
  4025ef:	ba 10 00 00 00       	mov    $0x10,%edx
  4025f4:	48 89 ce             	mov    %rcx,%rsi
  4025f7:	89 c7                	mov    %eax,%edi
  4025f9:	e8 e2 e6 ff ff       	callq  400ce0 <connect@plt>
  4025fe:	85 c0                	test   %eax,%eax
  402600:	79 2b                	jns    40262d <init_driver+0x1d1>
  402602:	48 8b 55 f8          	mov    -0x8(%rbp),%rdx
  402606:	48 8b 45 c8          	mov    -0x38(%rbp),%rax
  40260a:	be 18 2c 40 00       	mov    $0x402c18,%esi
  40260f:	48 89 c7             	mov    %rax,%rdi
  402612:	b8 00 00 00 00       	mov    $0x0,%eax
  402617:	e8 a4 e6 ff ff       	callq  400cc0 <sprintf@plt>
  40261c:	8b 45 f0             	mov    -0x10(%rbp),%eax
  40261f:	89 c7                	mov    %eax,%edi
  402621:	e8 9a e5 ff ff       	callq  400bc0 <close@plt>
  402626:	b8 ff ff ff ff       	mov    $0xffffffff,%eax
  40262b:	eb 1c                	jmp    402649 <init_driver+0x1ed>
  40262d:	8b 45 f0             	mov    -0x10(%rbp),%eax
  402630:	89 c7                	mov    %eax,%edi
  402632:	e8 89 e5 ff ff       	callq  400bc0 <close@plt>
  402637:	48 8b 45 c8          	mov    -0x38(%rbp),%rax
  40263b:	66 c7 00 4f 4b       	movw   $0x4b4f,(%rax)
  402640:	c6 40 02 00          	movb   $0x0,0x2(%rax)
  402644:	b8 00 00 00 00       	mov    $0x0,%eax
  402649:	c9                   	leaveq 
  40264a:	c3                   	retq   

000000000040264b <driver_post>:
driver_post():
  40264b:	55                   	push   %rbp
  40264c:	48 89 e5             	mov    %rsp,%rbp
  40264f:	48 83 ec 30          	sub    $0x30,%rsp
  402653:	48 89 7d e8          	mov    %rdi,-0x18(%rbp)
  402657:	48 89 75 e0          	mov    %rsi,-0x20(%rbp)
  40265b:	89 55 dc             	mov    %edx,-0x24(%rbp)
  40265e:	48 89 4d d0          	mov    %rcx,-0x30(%rbp)
  402662:	83 7d dc 00          	cmpl   $0x0,-0x24(%rbp)
  402666:	74 2a                	je     402692 <driver_post+0x47>
  402668:	48 8b 45 e0          	mov    -0x20(%rbp),%rax
  40266c:	48 89 c6             	mov    %rax,%rsi
  40266f:	bf 3e 2c 40 00       	mov    $0x402c3e,%edi
  402674:	b8 00 00 00 00       	mov    $0x0,%eax
  402679:	e8 22 e5 ff ff       	callq  400ba0 <printf@plt>
  40267e:	48 8b 45 d0          	mov    -0x30(%rbp),%rax
  402682:	66 c7 00 4f 4b       	movw   $0x4b4f,(%rax)
  402687:	c6 40 02 00          	movb   $0x0,0x2(%rax)
  40268b:	b8 00 00 00 00       	mov    $0x0,%eax
  402690:	eb 5f                	jmp    4026f1 <driver_post+0xa6>
  402692:	48 83 7d e8 00       	cmpq   $0x0,-0x18(%rbp)
  402697:	74 46                	je     4026df <driver_post+0x94>
  402699:	48 8b 45 e8          	mov    -0x18(%rbp),%rax
  40269d:	0f b6 00             	movzbl (%rax),%eax
  4026a0:	84 c0                	test   %al,%al
  4026a2:	74 3b                	je     4026df <driver_post+0x94>
  4026a4:	48 83 ec 08          	sub    $0x8,%rsp
  4026a8:	48 8b 55 e0          	mov    -0x20(%rbp),%rdx
  4026ac:	48 8b 45 e8          	mov    -0x18(%rbp),%rax
  4026b0:	ff 75 d0             	pushq  -0x30(%rbp)
  4026b3:	49 89 d1             	mov    %rdx,%r9
  4026b6:	41 b8 55 2c 40 00    	mov    $0x402c55,%r8d
  4026bc:	48 89 c1             	mov    %rax,%rcx
  4026bf:	ba 5d 2c 40 00       	mov    $0x402c5d,%edx
  4026c4:	be 6e 3b 00 00       	mov    $0x3b6e,%esi
  4026c9:	bf fb 2b 40 00       	mov    $0x402bfb,%edi
  4026ce:	e8 1f f6 ff ff       	callq  401cf2 <submitr>
  4026d3:	48 83 c4 10          	add    $0x10,%rsp
  4026d7:	89 45 fc             	mov    %eax,-0x4(%rbp)
  4026da:	8b 45 fc             	mov    -0x4(%rbp),%eax
  4026dd:	eb 12                	jmp    4026f1 <driver_post+0xa6>
  4026df:	48 8b 45 d0          	mov    -0x30(%rbp),%rax
  4026e3:	66 c7 00 4f 4b       	movw   $0x4b4f,(%rax)
  4026e8:	c6 40 02 00          	movb   $0x0,0x2(%rax)
  4026ec:	b8 00 00 00 00       	mov    $0x0,%eax
  4026f1:	c9                   	leaveq 
  4026f2:	c3                   	retq   
  4026f3:	66 2e 0f 1f 84 00 00 	nopw   %cs:0x0(%rax,%rax,1)
  4026fa:	00 00 00 
  4026fd:	0f 1f 00             	nopl   (%rax)

0000000000402700 <__libc_csu_init>:
__libc_csu_init():
  402700:	41 57                	push   %r15
  402702:	41 89 ff             	mov    %edi,%r15d
  402705:	41 56                	push   %r14
  402707:	49 89 f6             	mov    %rsi,%r14
  40270a:	41 55                	push   %r13
  40270c:	49 89 d5             	mov    %rdx,%r13
  40270f:	41 54                	push   %r12
  402711:	4c 8d 25 60 0b 20 00 	lea    0x200b60(%rip),%r12        # 603278 <__frame_dummy_init_array_entry>
  402718:	55                   	push   %rbp
  402719:	48 8d 2d 60 0b 20 00 	lea    0x200b60(%rip),%rbp        # 603280 <__init_array_end>
  402720:	53                   	push   %rbx
  402721:	4c 29 e5             	sub    %r12,%rbp
  402724:	31 db                	xor    %ebx,%ebx
  402726:	48 c1 fd 03          	sar    $0x3,%rbp
  40272a:	48 83 ec 08          	sub    $0x8,%rsp
  40272e:	e8 c5 e3 ff ff       	callq  400af8 <_init>
  402733:	48 85 ed             	test   %rbp,%rbp
  402736:	74 1e                	je     402756 <__libc_csu_init+0x56>
  402738:	0f 1f 84 00 00 00 00 	nopl   0x0(%rax,%rax,1)
  40273f:	00 
  402740:	4c 89 ea             	mov    %r13,%rdx
  402743:	4c 89 f6             	mov    %r14,%rsi
  402746:	44 89 ff             	mov    %r15d,%edi
  402749:	41 ff 14 dc          	callq  *(%r12,%rbx,8)
  40274d:	48 83 c3 01          	add    $0x1,%rbx
  402751:	48 39 eb             	cmp    %rbp,%rbx
  402754:	75 ea                	jne    402740 <__libc_csu_init+0x40>
  402756:	48 83 c4 08          	add    $0x8,%rsp
  40275a:	5b                   	pop    %rbx
  40275b:	5d                   	pop    %rbp
  40275c:	41 5c                	pop    %r12
  40275e:	41 5d                	pop    %r13
  402760:	41 5e                	pop    %r14
  402762:	41 5f                	pop    %r15
  402764:	c3                   	retq   
  402765:	66 66 2e 0f 1f 84 00 	data16 nopw %cs:0x0(%rax,%rax,1)
  40276c:	00 00 00 00 

0000000000402770 <__libc_csu_fini>:
__libc_csu_fini():
  402770:	f3 c3                	repz retq 

Disassembly of section .fini:

0000000000402774 <_fini>:
_fini():
  402774:	48 83 ec 08          	sub    $0x8,%rsp
  402778:	48 83 c4 08          	add    $0x8,%rsp
  40277c:	c3                   	retq   
